
serv.b:     file format elf32-tradbigmips

Disassembly of section .text:

00400000 <_start>:
  400000:	0c10046f 	jal	4011bc <libmain>
  400004:	00000000 	nop
  400008:	00000000 	nop

0040000c <__asm_pgfault_handler>:
  40000c:	00000000 	nop
  400010:	8fa4008c 	lw	a0,140(sp)
  400014:	3c090040 	lui	t1,0x40
  400018:	8d296410 	lw	t1,25616(t1)
  40001c:	0120f809 	jalr	t1
  400020:	00000000 	nop
  400024:	8fa30088 	lw	v1,136(sp)
  400028:	00600013 	mtlo	v1
  40002c:	8fa20084 	lw	v0,132(sp)
  400030:	8fa30094 	lw	v1,148(sp)
  400034:	00400011 	mthi	v0
  400038:	40837000 	mtc0	v1,c0_epc
  40003c:	8fbf007c 	lw	ra,124(sp)
  400040:	8fbe0078 	lw	s8,120(sp)
  400044:	8fbc0070 	lw	gp,112(sp)
  400048:	8fb90064 	lw	t9,100(sp)
  40004c:	8fb80060 	lw	t8,96(sp)
  400050:	8fb7005c 	lw	s7,92(sp)
  400054:	8fb60058 	lw	s6,88(sp)
  400058:	8fb50054 	lw	s5,84(sp)
  40005c:	8fb40050 	lw	s4,80(sp)
  400060:	8fb3004c 	lw	s3,76(sp)
  400064:	8fb20048 	lw	s2,72(sp)
  400068:	8fb10044 	lw	s1,68(sp)
  40006c:	8fb00040 	lw	s0,64(sp)
  400070:	8faf003c 	lw	t7,60(sp)
  400074:	8fae0038 	lw	t6,56(sp)
  400078:	8fad0034 	lw	t5,52(sp)
  40007c:	8fac0030 	lw	t4,48(sp)
  400080:	8fab002c 	lw	t3,44(sp)
  400084:	8faa0028 	lw	t2,40(sp)
  400088:	8fa90024 	lw	t1,36(sp)
  40008c:	8fa80020 	lw	t0,32(sp)
  400090:	8fa7001c 	lw	a3,28(sp)
  400094:	8fa60018 	lw	a2,24(sp)
  400098:	8fa50014 	lw	a1,20(sp)
  40009c:	8fa40010 	lw	a0,16(sp)
  4000a0:	8fa3000c 	lw	v1,12(sp)
  4000a4:	8fa20008 	lw	v0,8(sp)
  4000a8:	8fa10004 	lw	at,4(sp)
  4000ac:	8fba0094 	lw	k0,148(sp)
  4000b0:	03400008 	jr	k0
  4000b4:	8fbd0074 	lw	sp,116(sp)
	...

004000c0 <msyscall>:
  4000c0:	afa40000 	sw	a0,0(sp)
  4000c4:	afa50004 	sw	a1,4(sp)
  4000c8:	afa60008 	sw	a2,8(sp)
  4000cc:	afa7000c 	sw	a3,12(sp)
  4000d0:	00801021 	move	v0,a0
  4000d4:	0000000c 	syscall
  4000d8:	03e00008 	jr	ra
  4000dc:	00000000 	nop

004000e0 <serve_init>:
  4000e0:	3c04d000 	lui	a0,0xd000
  4000e4:	00001821 	move	v1,zero
  4000e8:	3c020040 	lui	v0,0x40
  4000ec:	24426424 	addiu	v0,v0,25636
  4000f0:	24050400 	li	a1,1024
  4000f4:	ac430000 	sw	v1,0(v0)
  4000f8:	ac440008 	sw	a0,8(v0)
  4000fc:	24841000 	addiu	a0,a0,4096
  400100:	24630001 	addiu	v1,v1,1
  400104:	1465fffb 	bne	v1,a1,4000f4 <serve_init+0x14>
  400108:	24420010 	addiu	v0,v0,16
  40010c:	03e00008 	jr	ra
  400110:	00000000 	nop

00400114 <open_alloc>:
  400114:	27bdffd0 	addiu	sp,sp,-48
  400118:	afbf0028 	sw	ra,40(sp)
  40011c:	afb50024 	sw	s5,36(sp)
  400120:	afb40020 	sw	s4,32(sp)
  400124:	afb3001c 	sw	s3,28(sp)
  400128:	afb20018 	sw	s2,24(sp)
  40012c:	afb10014 	sw	s1,20(sp)
  400130:	afb00010 	sw	s0,16(sp)
  400134:	0080a821 	move	s5,a0
  400138:	00008821 	move	s1,zero
  40013c:	3c020040 	lui	v0,0x40
  400140:	2450642c 	addiu	s0,v0,25644
  400144:	24130001 	li	s3,1
  400148:	3c020040 	lui	v0,0x40
  40014c:	24546420 	addiu	s4,v0,25632
  400150:	24120400 	li	s2,1024
  400154:	0c100888 	jal	402220 <pageref>
  400158:	8e040000 	lw	a0,0(s0)
  40015c:	10400005 	beqz	v0,400174 <open_alloc+0x60>
  400160:	00000000 	nop
  400164:	14530017 	bne	v0,s3,4001c4 <open_alloc+0xb0>
  400168:	00111100 	sll	v0,s1,0x4
  40016c:	1000000b 	b	40019c <open_alloc+0x88>
  400170:	00541021 	addu	v0,v0,s4
  400174:	00111100 	sll	v0,s1,0x4
  400178:	00541021 	addu	v0,v0,s4
  40017c:	00002021 	move	a0,zero
  400180:	8c45000c 	lw	a1,12(v0)
  400184:	0c1005c3 	jal	40170c <syscall_mem_alloc>
  400188:	24060600 	li	a2,1536
  40018c:	04400012 	bltz	v0,4001d8 <open_alloc+0xc4>
  400190:	8fbf0028 	lw	ra,40(sp)
  400194:	00111100 	sll	v0,s1,0x4
  400198:	00541021 	addu	v0,v0,s4
  40019c:	8c430004 	lw	v1,4(v0)
  4001a0:	24630400 	addiu	v1,v1,1024
  4001a4:	ac430004 	sw	v1,4(v0)
  4001a8:	aea20000 	sw	v0,0(s5)
  4001ac:	8c44000c 	lw	a0,12(v0)
  4001b0:	0c100493 	jal	40124c <user_bzero>
  4001b4:	24051000 	li	a1,4096
  4001b8:	8ea20000 	lw	v0,0(s5)
  4001bc:	10000005 	b	4001d4 <open_alloc+0xc0>
  4001c0:	8c420004 	lw	v0,4(v0)
  4001c4:	26310001 	addiu	s1,s1,1
  4001c8:	1632ffe2 	bne	s1,s2,400154 <open_alloc+0x40>
  4001cc:	26100010 	addiu	s0,s0,16
  4001d0:	2402fff8 	li	v0,-8
  4001d4:	8fbf0028 	lw	ra,40(sp)
  4001d8:	8fb50024 	lw	s5,36(sp)
  4001dc:	8fb40020 	lw	s4,32(sp)
  4001e0:	8fb3001c 	lw	s3,28(sp)
  4001e4:	8fb20018 	lw	s2,24(sp)
  4001e8:	8fb10014 	lw	s1,20(sp)
  4001ec:	8fb00010 	lw	s0,16(sp)
  4001f0:	03e00008 	jr	ra
  4001f4:	27bd0030 	addiu	sp,sp,48

004001f8 <open_lookup>:
  4001f8:	27bdffe0 	addiu	sp,sp,-32
  4001fc:	afbf001c 	sw	ra,28(sp)
  400200:	afb20018 	sw	s2,24(sp)
  400204:	afb10014 	sw	s1,20(sp)
  400208:	afb00010 	sw	s0,16(sp)
  40020c:	00a08821 	move	s1,a1
  400210:	00c09021 	move	s2,a2
  400214:	30a203ff 	andi	v0,a1,0x3ff
  400218:	00021100 	sll	v0,v0,0x4
  40021c:	3c030040 	lui	v1,0x40
  400220:	24636420 	addiu	v1,v1,25632
  400224:	00438021 	addu	s0,v0,v1
  400228:	0c100888 	jal	402220 <pageref>
  40022c:	8e04000c 	lw	a0,12(s0)
  400230:	24030001 	li	v1,1
  400234:	10430007 	beq	v0,v1,400254 <open_lookup+0x5c>
  400238:	2402fffd 	li	v0,-3
  40023c:	8e020004 	lw	v0,4(s0)
  400240:	16220003 	bne	s1,v0,400250 <open_lookup+0x58>
  400244:	00001021 	move	v0,zero
  400248:	10000002 	b	400254 <open_lookup+0x5c>
  40024c:	ae500000 	sw	s0,0(s2)
  400250:	2402fffd 	li	v0,-3
  400254:	8fbf001c 	lw	ra,28(sp)
  400258:	8fb20018 	lw	s2,24(sp)
  40025c:	8fb10014 	lw	s1,20(sp)
  400260:	8fb00010 	lw	s0,16(sp)
  400264:	03e00008 	jr	ra
  400268:	27bd0020 	addiu	sp,sp,32

0040026c <serve_open>:
  40026c:	27bdfbd8 	addiu	sp,sp,-1064
  400270:	afbf0420 	sw	ra,1056(sp)
  400274:	afb1041c 	sw	s1,1052(sp)
  400278:	afb00418 	sw	s0,1048(sp)
  40027c:	00808821 	move	s1,a0
  400280:	00a08021 	move	s0,a1
  400284:	00a02021 	move	a0,a1
  400288:	27a50010 	addiu	a1,sp,16
  40028c:	0c10047c 	jal	4011f0 <user_bcopy>
  400290:	24060400 	li	a2,1024
  400294:	a3a0040f 	sb	zero,1039(sp)
  400298:	0c100045 	jal	400114 <open_alloc>
  40029c:	27a40414 	addiu	a0,sp,1044
  4002a0:	0440002b 	bltz	v0,400350 <serve_open+0xe4>
  4002a4:	27a40010 	addiu	a0,sp,16
  4002a8:	0c100ea6 	jal	403a98 <file_open>
  4002ac:	27a50410 	addiu	a1,sp,1040
  4002b0:	04400027 	bltz	v0,400350 <serve_open+0xe4>
  4002b4:	8fa30414 	lw	v1,1044(sp)
  4002b8:	8fa20410 	lw	v0,1040(sp)
  4002bc:	ac620000 	sw	v0,0(v1)
  4002c0:	8fa20414 	lw	v0,1044(sp)
  4002c4:	8c49000c 	lw	t1,12(v0)
  4002c8:	8fa60410 	lw	a2,1040(sp)
  4002cc:	25270010 	addiu	a3,t1,16
  4002d0:	24c80100 	addiu	t0,a2,256
  4002d4:	8cc20000 	lw	v0,0(a2)
  4002d8:	8cc30004 	lw	v1,4(a2)
  4002dc:	8cc40008 	lw	a0,8(a2)
  4002e0:	8cc5000c 	lw	a1,12(a2)
  4002e4:	ace20000 	sw	v0,0(a3)
  4002e8:	ace30004 	sw	v1,4(a3)
  4002ec:	ace40008 	sw	a0,8(a3)
  4002f0:	ace5000c 	sw	a1,12(a3)
  4002f4:	24c60010 	addiu	a2,a2,16
  4002f8:	14c8fff6 	bne	a2,t0,4002d4 <serve_open+0x68>
  4002fc:	24e70010 	addiu	a3,a3,16
  400300:	8fa20414 	lw	v0,1044(sp)
  400304:	8c420004 	lw	v0,4(v0)
  400308:	ad22000c 	sw	v0,12(t1)
  40030c:	8e030400 	lw	v1,1024(s0)
  400310:	8fa20414 	lw	v0,1044(sp)
  400314:	ac430008 	sw	v1,8(v0)
  400318:	8fa20414 	lw	v0,1044(sp)
  40031c:	8c420008 	lw	v0,8(v0)
  400320:	ad220008 	sw	v0,8(t1)
  400324:	3c020041 	lui	v0,0x41
  400328:	8c42b03c 	lw	v0,-20420(v0)
  40032c:	ad220000 	sw	v0,0(t1)
  400330:	02202021 	move	a0,s1
  400334:	00002821 	move	a1,zero
  400338:	8fa20414 	lw	v0,1044(sp)
  40033c:	8c46000c 	lw	a2,12(v0)
  400340:	0c100644 	jal	401910 <ipc_send>
  400344:	24070600 	li	a3,1536
  400348:	10000007 	b	400368 <serve_open+0xfc>
  40034c:	8fbf0420 	lw	ra,1056(sp)
  400350:	02202021 	move	a0,s1
  400354:	00402821 	move	a1,v0
  400358:	00003021 	move	a2,zero
  40035c:	0c100644 	jal	401910 <ipc_send>
  400360:	00003821 	move	a3,zero
  400364:	8fbf0420 	lw	ra,1056(sp)
  400368:	8fb1041c 	lw	s1,1052(sp)
  40036c:	8fb00418 	lw	s0,1048(sp)
  400370:	03e00008 	jr	ra
  400374:	27bd0428 	addiu	sp,sp,1064

00400378 <serve_map>:
  400378:	27bdffd8 	addiu	sp,sp,-40
  40037c:	afbf0020 	sw	ra,32(sp)
  400380:	afb1001c 	sw	s1,28(sp)
  400384:	afb00018 	sw	s0,24(sp)
  400388:	00808821 	move	s1,a0
  40038c:	00a08021 	move	s0,a1
  400390:	8ca50000 	lw	a1,0(a1)
  400394:	0c10007e 	jal	4001f8 <open_lookup>
  400398:	27a60010 	addiu	a2,sp,16
  40039c:	04410007 	bgez	v0,4003bc <serve_map+0x44>
  4003a0:	02202021 	move	a0,s1
  4003a4:	00402821 	move	a1,v0
  4003a8:	00003021 	move	a2,zero
  4003ac:	0c100644 	jal	401910 <ipc_send>
  4003b0:	00003821 	move	a3,zero
  4003b4:	10000014 	b	400408 <serve_map+0x90>
  4003b8:	8fbf0020 	lw	ra,32(sp)
  4003bc:	8e050004 	lw	a1,4(s0)
  4003c0:	8fa20010 	lw	v0,16(sp)
  4003c4:	8c440000 	lw	a0,0(v0)
  4003c8:	00052b02 	srl	a1,a1,0xc
  4003cc:	0c100dd0 	jal	403740 <file_get_block>
  4003d0:	27a60014 	addiu	a2,sp,20
  4003d4:	04410007 	bgez	v0,4003f4 <serve_map+0x7c>
  4003d8:	02202021 	move	a0,s1
  4003dc:	00402821 	move	a1,v0
  4003e0:	00003021 	move	a2,zero
  4003e4:	0c100644 	jal	401910 <ipc_send>
  4003e8:	00003821 	move	a3,zero
  4003ec:	10000006 	b	400408 <serve_map+0x90>
  4003f0:	8fbf0020 	lw	ra,32(sp)
  4003f4:	00002821 	move	a1,zero
  4003f8:	8fa60014 	lw	a2,20(sp)
  4003fc:	0c100644 	jal	401910 <ipc_send>
  400400:	24070600 	li	a3,1536
  400404:	8fbf0020 	lw	ra,32(sp)
  400408:	8fb1001c 	lw	s1,28(sp)
  40040c:	8fb00018 	lw	s0,24(sp)
  400410:	03e00008 	jr	ra
  400414:	27bd0028 	addiu	sp,sp,40

00400418 <serve_set_size>:
  400418:	27bdffd8 	addiu	sp,sp,-40
  40041c:	afbf0020 	sw	ra,32(sp)
  400420:	afb1001c 	sw	s1,28(sp)
  400424:	afb00018 	sw	s0,24(sp)
  400428:	00808821 	move	s1,a0
  40042c:	00a08021 	move	s0,a1
  400430:	8ca50000 	lw	a1,0(a1)
  400434:	0c10007e 	jal	4001f8 <open_lookup>
  400438:	27a60010 	addiu	a2,sp,16
  40043c:	04410007 	bgez	v0,40045c <serve_set_size+0x44>
  400440:	02202021 	move	a0,s1
  400444:	00402821 	move	a1,v0
  400448:	00003021 	move	a2,zero
  40044c:	0c100644 	jal	401910 <ipc_send>
  400450:	00003821 	move	a3,zero
  400454:	10000012 	b	4004a0 <serve_set_size+0x88>
  400458:	8fbf0020 	lw	ra,32(sp)
  40045c:	8fa20010 	lw	v0,16(sp)
  400460:	8c440000 	lw	a0,0(v0)
  400464:	0c100f0b 	jal	403c2c <file_set_size>
  400468:	8e050004 	lw	a1,4(s0)
  40046c:	04410007 	bgez	v0,40048c <serve_set_size+0x74>
  400470:	02202021 	move	a0,s1
  400474:	00402821 	move	a1,v0
  400478:	00003021 	move	a2,zero
  40047c:	0c100644 	jal	401910 <ipc_send>
  400480:	00003821 	move	a3,zero
  400484:	10000006 	b	4004a0 <serve_set_size+0x88>
  400488:	8fbf0020 	lw	ra,32(sp)
  40048c:	00002821 	move	a1,zero
  400490:	00003021 	move	a2,zero
  400494:	0c100644 	jal	401910 <ipc_send>
  400498:	00003821 	move	a3,zero
  40049c:	8fbf0020 	lw	ra,32(sp)
  4004a0:	8fb1001c 	lw	s1,28(sp)
  4004a4:	8fb00018 	lw	s0,24(sp)
  4004a8:	03e00008 	jr	ra
  4004ac:	27bd0028 	addiu	sp,sp,40

004004b0 <serve_close>:
  4004b0:	27bdffe0 	addiu	sp,sp,-32
  4004b4:	afbf001c 	sw	ra,28(sp)
  4004b8:	afb00018 	sw	s0,24(sp)
  4004bc:	00808021 	move	s0,a0
  4004c0:	8ca50000 	lw	a1,0(a1)
  4004c4:	0c10007e 	jal	4001f8 <open_lookup>
  4004c8:	27a60010 	addiu	a2,sp,16
  4004cc:	04410007 	bgez	v0,4004ec <serve_close+0x3c>
  4004d0:	02002021 	move	a0,s0
  4004d4:	00402821 	move	a1,v0
  4004d8:	00003021 	move	a2,zero
  4004dc:	0c100644 	jal	401910 <ipc_send>
  4004e0:	00003821 	move	a3,zero
  4004e4:	1000000a 	b	400510 <serve_close+0x60>
  4004e8:	8fbf001c 	lw	ra,28(sp)
  4004ec:	8fa20010 	lw	v0,16(sp)
  4004f0:	0c100f62 	jal	403d88 <file_close>
  4004f4:	8c440000 	lw	a0,0(v0)
  4004f8:	02002021 	move	a0,s0
  4004fc:	00002821 	move	a1,zero
  400500:	00003021 	move	a2,zero
  400504:	0c100644 	jal	401910 <ipc_send>
  400508:	00003821 	move	a3,zero
  40050c:	8fbf001c 	lw	ra,28(sp)
  400510:	8fb00018 	lw	s0,24(sp)
  400514:	03e00008 	jr	ra
  400518:	27bd0020 	addiu	sp,sp,32

0040051c <serve_remove>:
  40051c:	27bdfbe8 	addiu	sp,sp,-1048
  400520:	afbf0414 	sw	ra,1044(sp)
  400524:	afb00410 	sw	s0,1040(sp)
  400528:	00808021 	move	s0,a0
  40052c:	00a02021 	move	a0,a1
  400530:	27a50010 	addiu	a1,sp,16
  400534:	0c10047c 	jal	4011f0 <user_bcopy>
  400538:	24060400 	li	a2,1024
  40053c:	a3a0040f 	sb	zero,1039(sp)
  400540:	0c100f70 	jal	403dc0 <file_remove>
  400544:	27a40010 	addiu	a0,sp,16
  400548:	04410007 	bgez	v0,400568 <serve_remove+0x4c>
  40054c:	02002021 	move	a0,s0
  400550:	00402821 	move	a1,v0
  400554:	00003021 	move	a2,zero
  400558:	0c100644 	jal	401910 <ipc_send>
  40055c:	00003821 	move	a3,zero
  400560:	10000006 	b	40057c <serve_remove+0x60>
  400564:	8fbf0414 	lw	ra,1044(sp)
  400568:	00002821 	move	a1,zero
  40056c:	00003021 	move	a2,zero
  400570:	0c100644 	jal	401910 <ipc_send>
  400574:	00003821 	move	a3,zero
  400578:	8fbf0414 	lw	ra,1044(sp)
  40057c:	8fb00410 	lw	s0,1040(sp)
  400580:	03e00008 	jr	ra
  400584:	27bd0418 	addiu	sp,sp,1048

00400588 <serve_dirty>:
  400588:	27bdffd8 	addiu	sp,sp,-40
  40058c:	afbf0020 	sw	ra,32(sp)
  400590:	afb1001c 	sw	s1,28(sp)
  400594:	afb00018 	sw	s0,24(sp)
  400598:	00808821 	move	s1,a0
  40059c:	00a08021 	move	s0,a1
  4005a0:	8ca50000 	lw	a1,0(a1)
  4005a4:	0c10007e 	jal	4001f8 <open_lookup>
  4005a8:	27a60010 	addiu	a2,sp,16
  4005ac:	04410007 	bgez	v0,4005cc <serve_dirty+0x44>
  4005b0:	02202021 	move	a0,s1
  4005b4:	00402821 	move	a1,v0
  4005b8:	00003021 	move	a2,zero
  4005bc:	0c100644 	jal	401910 <ipc_send>
  4005c0:	00003821 	move	a3,zero
  4005c4:	10000012 	b	400610 <serve_dirty+0x88>
  4005c8:	8fbf0020 	lw	ra,32(sp)
  4005cc:	8fa20010 	lw	v0,16(sp)
  4005d0:	8c440000 	lw	a0,0(v0)
  4005d4:	0c100de5 	jal	403794 <file_dirty>
  4005d8:	8e050004 	lw	a1,4(s0)
  4005dc:	04410007 	bgez	v0,4005fc <serve_dirty+0x74>
  4005e0:	02202021 	move	a0,s1
  4005e4:	00402821 	move	a1,v0
  4005e8:	00003021 	move	a2,zero
  4005ec:	0c100644 	jal	401910 <ipc_send>
  4005f0:	00003821 	move	a3,zero
  4005f4:	10000006 	b	400610 <serve_dirty+0x88>
  4005f8:	8fbf0020 	lw	ra,32(sp)
  4005fc:	00002821 	move	a1,zero
  400600:	00003021 	move	a2,zero
  400604:	0c100644 	jal	401910 <ipc_send>
  400608:	00003821 	move	a3,zero
  40060c:	8fbf0020 	lw	ra,32(sp)
  400610:	8fb1001c 	lw	s1,28(sp)
  400614:	8fb00018 	lw	s0,24(sp)
  400618:	03e00008 	jr	ra
  40061c:	27bd0028 	addiu	sp,sp,40

00400620 <serve_sync>:
  400620:	27bdffe8 	addiu	sp,sp,-24
  400624:	afbf0014 	sw	ra,20(sp)
  400628:	afb00010 	sw	s0,16(sp)
  40062c:	0c100f43 	jal	403d0c <fs_sync>
  400630:	00808021 	move	s0,a0
  400634:	02002021 	move	a0,s0
  400638:	00002821 	move	a1,zero
  40063c:	00003021 	move	a2,zero
  400640:	0c100644 	jal	401910 <ipc_send>
  400644:	00003821 	move	a3,zero
  400648:	8fbf0014 	lw	ra,20(sp)
  40064c:	8fb00010 	lw	s0,16(sp)
  400650:	03e00008 	jr	ra
  400654:	27bd0018 	addiu	sp,sp,24

00400658 <serve>:
  400658:	27bdffe0 	addiu	sp,sp,-32
  40065c:	afbf0018 	sw	ra,24(sp)
  400660:	afa00014 	sw	zero,20(sp)
  400664:	27a40010 	addiu	a0,sp,16
  400668:	3c050fff 	lui	a1,0xfff
  40066c:	34a5f000 	ori	a1,a1,0xf000
  400670:	0c10066a 	jal	4019a8 <ipc_recv>
  400674:	27a60014 	addiu	a2,sp,20
  400678:	00403021 	move	a2,v0
  40067c:	8fa20014 	lw	v0,20(sp)
  400680:	30420200 	andi	v0,v0,0x200
  400684:	14400007 	bnez	v0,4006a4 <serve+0x4c>
  400688:	2cc20008 	sltiu	v0,a2,8
  40068c:	3c040041 	lui	a0,0x41
  400690:	2484a650 	addiu	a0,a0,-22960
  400694:	0c10021d 	jal	400874 <writef>
  400698:	8fa50010 	lw	a1,16(sp)
  40069c:	1000fff1 	b	400664 <serve+0xc>
  4006a0:	afa00014 	sw	zero,20(sp)
  4006a4:	10400031 	beqz	v0,40076c <serve+0x114>
  4006a8:	3c040041 	lui	a0,0x41
  4006ac:	00061080 	sll	v0,a2,0x2
  4006b0:	3c030041 	lui	v1,0x41
  4006b4:	2463a420 	addiu	v1,v1,-23520
  4006b8:	00431021 	addu	v0,v0,v1
  4006bc:	8c420000 	lw	v0,0(v0)
  4006c0:	00400008 	jr	v0
  4006c4:	00000000 	nop
  4006c8:	8fa40010 	lw	a0,16(sp)
  4006cc:	3c050fff 	lui	a1,0xfff
  4006d0:	0c10009b 	jal	40026c <serve_open>
  4006d4:	34a5f000 	ori	a1,a1,0xf000
  4006d8:	10000028 	b	40077c <serve+0x124>
  4006dc:	00002021 	move	a0,zero
  4006e0:	8fa40010 	lw	a0,16(sp)
  4006e4:	3c050fff 	lui	a1,0xfff
  4006e8:	0c1000de 	jal	400378 <serve_map>
  4006ec:	34a5f000 	ori	a1,a1,0xf000
  4006f0:	10000022 	b	40077c <serve+0x124>
  4006f4:	00002021 	move	a0,zero
  4006f8:	8fa40010 	lw	a0,16(sp)
  4006fc:	3c050fff 	lui	a1,0xfff
  400700:	0c100106 	jal	400418 <serve_set_size>
  400704:	34a5f000 	ori	a1,a1,0xf000
  400708:	1000001c 	b	40077c <serve+0x124>
  40070c:	00002021 	move	a0,zero
  400710:	8fa40010 	lw	a0,16(sp)
  400714:	3c050fff 	lui	a1,0xfff
  400718:	0c10012c 	jal	4004b0 <serve_close>
  40071c:	34a5f000 	ori	a1,a1,0xf000
  400720:	10000016 	b	40077c <serve+0x124>
  400724:	00002021 	move	a0,zero
  400728:	8fa40010 	lw	a0,16(sp)
  40072c:	3c050fff 	lui	a1,0xfff
  400730:	0c100162 	jal	400588 <serve_dirty>
  400734:	34a5f000 	ori	a1,a1,0xf000
  400738:	10000010 	b	40077c <serve+0x124>
  40073c:	00002021 	move	a0,zero
  400740:	8fa40010 	lw	a0,16(sp)
  400744:	3c050fff 	lui	a1,0xfff
  400748:	0c100147 	jal	40051c <serve_remove>
  40074c:	34a5f000 	ori	a1,a1,0xf000
  400750:	1000000a 	b	40077c <serve+0x124>
  400754:	00002021 	move	a0,zero
  400758:	0c100188 	jal	400620 <serve_sync>
  40075c:	8fa40010 	lw	a0,16(sp)
  400760:	10000006 	b	40077c <serve+0x124>
  400764:	00002021 	move	a0,zero
  400768:	3c040041 	lui	a0,0x41
  40076c:	2484a680 	addiu	a0,a0,-22912
  400770:	0c10021d 	jal	400874 <writef>
  400774:	8fa50010 	lw	a1,16(sp)
  400778:	00002021 	move	a0,zero
  40077c:	3c050fff 	lui	a1,0xfff
  400780:	0c1005e1 	jal	401784 <syscall_mem_unmap>
  400784:	34a5f000 	ori	a1,a1,0xf000
  400788:	1000ffb6 	b	400664 <serve+0xc>
  40078c:	afa00014 	sw	zero,20(sp)

00400790 <umain>:
  400790:	27bdffe8 	addiu	sp,sp,-24
  400794:	afbf0010 	sw	ra,16(sp)
  400798:	3c040041 	lui	a0,0x41
  40079c:	0c10021d 	jal	400874 <writef>
  4007a0:	2484a6a4 	addiu	a0,a0,-22876
  4007a4:	3c040041 	lui	a0,0x41
  4007a8:	0c10021d 	jal	400874 <writef>
  4007ac:	2484a6b4 	addiu	a0,a0,-22860
  4007b0:	0c100038 	jal	4000e0 <serve_init>
  4007b4:	00000000 	nop
  4007b8:	0c100d5e 	jal	403578 <fs_init>
  4007bc:	00000000 	nop
  4007c0:	0c101021 	jal	404084 <fs_test>
  4007c4:	00000000 	nop
  4007c8:	3c040041 	lui	a0,0x41
  4007cc:	2484a6c4 	addiu	a0,a0,-22844
  4007d0:	24050142 	li	a1,322
  4007d4:	3c060041 	lui	a2,0x41
  4007d8:	0c10022c 	jal	4008b0 <_user_panic>
  4007dc:	24c6a6cc 	addiu	a2,a2,-22836

004007e0 <user_myoutput>:
  4007e0:	27bdffe0 	addiu	sp,sp,-32
  4007e4:	afbf001c 	sw	ra,28(sp)
  4007e8:	afb20018 	sw	s2,24(sp)
  4007ec:	afb10014 	sw	s1,20(sp)
  4007f0:	afb00010 	sw	s0,16(sp)
  4007f4:	24020001 	li	v0,1
  4007f8:	14c20013 	bne	a2,v0,400848 <user_myoutput+0x68>
  4007fc:	00c09021 	move	s2,a2
  400800:	80a20000 	lb	v0,0(a1)
  400804:	14400013 	bnez	v0,400854 <user_myoutput+0x74>
  400808:	00a08021 	move	s0,a1
  40080c:	10000014 	b	400860 <user_myoutput+0x80>
  400810:	8fbf001c 	lw	ra,28(sp)
  400814:	0c100584 	jal	401610 <syscall_putchar>
  400818:	82040000 	lb	a0,0(s0)
  40081c:	82030000 	lb	v1,0(s0)
  400820:	2402000a 	li	v0,10
  400824:	14620003 	bne	v1,v0,400834 <user_myoutput+0x54>
  400828:	00000000 	nop
  40082c:	0c100584 	jal	401610 <syscall_putchar>
  400830:	2404000a 	li	a0,10
  400834:	26310001 	addiu	s1,s1,1
  400838:	12510008 	beq	s2,s1,40085c <user_myoutput+0x7c>
  40083c:	26100001 	addiu	s0,s0,1
  400840:	1000fff4 	b	400814 <user_myoutput+0x34>
  400844:	00000000 	nop
  400848:	18c00005 	blez	a2,400860 <user_myoutput+0x80>
  40084c:	8fbf001c 	lw	ra,28(sp)
  400850:	00a08021 	move	s0,a1
  400854:	1000ffef 	b	400814 <user_myoutput+0x34>
  400858:	00008821 	move	s1,zero
  40085c:	8fbf001c 	lw	ra,28(sp)
  400860:	8fb20018 	lw	s2,24(sp)
  400864:	8fb10014 	lw	s1,20(sp)
  400868:	8fb00010 	lw	s0,16(sp)
  40086c:	03e00008 	jr	ra
  400870:	27bd0020 	addiu	sp,sp,32

00400874 <writef>:
  400874:	27bdffe0 	addiu	sp,sp,-32
  400878:	afbf0018 	sw	ra,24(sp)
  40087c:	afa50024 	sw	a1,36(sp)
  400880:	afa60028 	sw	a2,40(sp)
  400884:	afa7002c 	sw	a3,44(sp)
  400888:	00803021 	move	a2,a0
  40088c:	27a70024 	addiu	a3,sp,36
  400890:	afa70010 	sw	a3,16(sp)
  400894:	3c040040 	lui	a0,0x40
  400898:	248407e0 	addiu	a0,a0,2016
  40089c:	0c100248 	jal	400920 <user_lp_Print>
  4008a0:	00002821 	move	a1,zero
  4008a4:	8fbf0018 	lw	ra,24(sp)
  4008a8:	03e00008 	jr	ra
  4008ac:	27bd0020 	addiu	sp,sp,32

004008b0 <_user_panic>:
  4008b0:	27bdffe0 	addiu	sp,sp,-32
  4008b4:	afbf001c 	sw	ra,28(sp)
  4008b8:	afb00018 	sw	s0,24(sp)
  4008bc:	00801821 	move	v1,a0
  4008c0:	00a04021 	move	t0,a1
  4008c4:	afa7002c 	sw	a3,44(sp)
  4008c8:	00c08021 	move	s0,a2
  4008cc:	27a2002c 	addiu	v0,sp,44
  4008d0:	afa20010 	sw	v0,16(sp)
  4008d4:	3c040041 	lui	a0,0x41
  4008d8:	2484a6f0 	addiu	a0,a0,-22800
  4008dc:	00602821 	move	a1,v1
  4008e0:	0c10021d 	jal	400874 <writef>
  4008e4:	01003021 	move	a2,t0
  4008e8:	3c040040 	lui	a0,0x40
  4008ec:	248407e0 	addiu	a0,a0,2016
  4008f0:	00002821 	move	a1,zero
  4008f4:	02003021 	move	a2,s0
  4008f8:	0c100248 	jal	400920 <user_lp_Print>
  4008fc:	8fa70010 	lw	a3,16(sp)
  400900:	3c040041 	lui	a0,0x41
  400904:	0c10021d 	jal	400874 <writef>
  400908:	2484ab1c 	addiu	a0,a0,-21732
  40090c:	1000ffff 	b	40090c <_user_panic+0x5c>
  400910:	00000000 	nop
	...

00400920 <user_lp_Print>:
  400920:	27bdff78 	addiu	sp,sp,-136
  400924:	afbf0084 	sw	ra,132(sp)
  400928:	afb40080 	sw	s4,128(sp)
  40092c:	afb3007c 	sw	s3,124(sp)
  400930:	afb20078 	sw	s2,120(sp)
  400934:	afb10074 	sw	s1,116(sp)
  400938:	afb00070 	sw	s0,112(sp)
  40093c:	00809821 	move	s3,a0
  400940:	00a0a021 	move	s4,a1
  400944:	00c02821 	move	a1,a2
  400948:	00e09021 	move	s2,a3
  40094c:	80a30000 	lb	v1,0(a1)
  400950:	1060000c 	beqz	v1,400984 <user_lp_Print+0x64>
  400954:	00a08021 	move	s0,a1
  400958:	10000148 	b	400e7c <user_lp_Print+0x55c>
  40095c:	24020025 	li	v0,37
  400960:	00a08021 	move	s0,a1
  400964:	26100001 	addiu	s0,s0,1
  400968:	82020000 	lb	v0,0(s0)
  40096c:	10400006 	beqz	v0,400988 <user_lp_Print+0x68>
  400970:	02053023 	subu	a2,s0,a1
  400974:	10430005 	beq	v0,v1,40098c <user_lp_Print+0x6c>
  400978:	2cc20051 	sltiu	v0,a2,81
  40097c:	1000fffa 	b	400968 <user_lp_Print+0x48>
  400980:	26100001 	addiu	s0,s0,1
  400984:	02053023 	subu	a2,s0,a1
  400988:	2cc20051 	sltiu	v0,a2,81
  40098c:	14400007 	bnez	v0,4009ac <user_lp_Print+0x8c>
  400990:	02802021 	move	a0,s4
  400994:	3c050041 	lui	a1,0x41
  400998:	24a5a440 	addiu	a1,a1,-23488
  40099c:	0260f809 	jalr	s3
  4009a0:	2406001d 	li	a2,29
  4009a4:	1000ffff 	b	4009a4 <user_lp_Print+0x84>
  4009a8:	00000000 	nop
  4009ac:	0260f809 	jalr	s3
  4009b0:	02802021 	move	a0,s4
  4009b4:	82020000 	lb	v0,0(s0)
  4009b8:	10400123 	beqz	v0,400e48 <user_lp_Print+0x528>
  4009bc:	2402006c 	li	v0,108
  4009c0:	82030001 	lb	v1,1(s0)
  4009c4:	10620003 	beq	v1,v0,4009d4 <user_lp_Print+0xb4>
  4009c8:	26110001 	addiu	s1,s0,1
  4009cc:	10000003 	b	4009dc <user_lp_Print+0xbc>
  4009d0:	00002021 	move	a0,zero
  4009d4:	26110002 	addiu	s1,s0,2
  4009d8:	24040001 	li	a0,1
  4009dc:	82230000 	lb	v1,0(s1)
  4009e0:	2402002d 	li	v0,45
  4009e4:	14620004 	bne	v1,v0,4009f8 <user_lp_Print+0xd8>
  4009e8:	00003821 	move	a3,zero
  4009ec:	26310001 	addiu	s1,s1,1
  4009f0:	24070001 	li	a3,1
  4009f4:	82230000 	lb	v1,0(s1)
  4009f8:	24020030 	li	v0,48
  4009fc:	14620003 	bne	v1,v0,400a0c <user_lp_Print+0xec>
  400a00:	24090020 	li	t1,32
  400a04:	26310001 	addiu	s1,s1,1
  400a08:	24090030 	li	t1,48
  400a0c:	82260000 	lb	a2,0(s1)
  400a10:	24c2ffd0 	addiu	v0,a2,-48
  400a14:	304200ff 	andi	v0,v0,0xff
  400a18:	2c42000a 	sltiu	v0,v0,10
  400a1c:	1040000d 	beqz	v0,400a54 <user_lp_Print+0x134>
  400a20:	00004021 	move	t0,zero
  400a24:	00081040 	sll	v0,t0,0x1
  400a28:	000818c0 	sll	v1,t0,0x3
  400a2c:	00431021 	addu	v0,v0,v1
  400a30:	00461021 	addu	v0,v0,a2
  400a34:	2448ffd0 	addiu	t0,v0,-48
  400a38:	26310001 	addiu	s1,s1,1
  400a3c:	82260000 	lb	a2,0(s1)
  400a40:	24c2ffd0 	addiu	v0,a2,-48
  400a44:	304200ff 	andi	v0,v0,0xff
  400a48:	2c42000a 	sltiu	v0,v0,10
  400a4c:	1440fff6 	bnez	v0,400a28 <user_lp_Print+0x108>
  400a50:	00081040 	sll	v0,t0,0x1
  400a54:	82230000 	lb	v1,0(s1)
  400a58:	2402002e 	li	v0,46
  400a5c:	14620011 	bne	v1,v0,400aa4 <user_lp_Print+0x184>
  400a60:	2c620079 	sltiu	v0,v1,121
  400a64:	26310001 	addiu	s1,s1,1
  400a68:	92220000 	lbu	v0,0(s1)
  400a6c:	2442ffd0 	addiu	v0,v0,-48
  400a70:	304200ff 	andi	v0,v0,0xff
  400a74:	2c42000a 	sltiu	v0,v0,10
  400a78:	10400008 	beqz	v0,400a9c <user_lp_Print+0x17c>
  400a7c:	00000000 	nop
  400a80:	26310001 	addiu	s1,s1,1
  400a84:	92220000 	lbu	v0,0(s1)
  400a88:	2442ffd0 	addiu	v0,v0,-48
  400a8c:	304200ff 	andi	v0,v0,0xff
  400a90:	2c42000a 	sltiu	v0,v0,10
  400a94:	1440fffa 	bnez	v0,400a80 <user_lp_Print+0x160>
  400a98:	00000000 	nop
  400a9c:	82230000 	lb	v1,0(s1)
  400aa0:	2c620079 	sltiu	v0,v1,121
  400aa4:	104000e2 	beqz	v0,400e30 <user_lp_Print+0x510>
  400aa8:	00031080 	sll	v0,v1,0x2
  400aac:	3c030041 	lui	v1,0x41
  400ab0:	2463a464 	addiu	v1,v1,-23452
  400ab4:	00431021 	addu	v0,v0,v1
  400ab8:	8c420000 	lw	v0,0(v0)
  400abc:	00400008 	jr	v0
  400ac0:	00000000 	nop
  400ac4:	10800004 	beqz	a0,400ad8 <user_lp_Print+0x1b8>
  400ac8:	00000000 	nop
  400acc:	8e450000 	lw	a1,0(s2)
  400ad0:	10000003 	b	400ae0 <user_lp_Print+0x1c0>
  400ad4:	26520004 	addiu	s2,s2,4
  400ad8:	8e450000 	lw	a1,0(s2)
  400adc:	26520004 	addiu	s2,s2,4
  400ae0:	afa80010 	sw	t0,16(sp)
  400ae4:	afa70014 	sw	a3,20(sp)
  400ae8:	afa90018 	sw	t1,24(sp)
  400aec:	afa0001c 	sw	zero,28(sp)
  400af0:	27a40020 	addiu	a0,sp,32
  400af4:	24060002 	li	a2,2
  400af8:	0c100405 	jal	401014 <user_PrintNum>
  400afc:	00003821 	move	a3,zero
  400b00:	00403021 	move	a2,v0
  400b04:	2c420051 	sltiu	v0,v0,81
  400b08:	14400007 	bnez	v0,400b28 <user_lp_Print+0x208>
  400b0c:	02802021 	move	a0,s4
  400b10:	3c050041 	lui	a1,0x41
  400b14:	24a5a440 	addiu	a1,a1,-23488
  400b18:	0260f809 	jalr	s3
  400b1c:	2406001d 	li	a2,29
  400b20:	1000ffff 	b	400b20 <user_lp_Print+0x200>
  400b24:	00000000 	nop
  400b28:	0260f809 	jalr	s3
  400b2c:	27a50020 	addiu	a1,sp,32
  400b30:	1000ff86 	b	40094c <user_lp_Print+0x2c>
  400b34:	26250001 	addiu	a1,s1,1
  400b38:	10800004 	beqz	a0,400b4c <user_lp_Print+0x22c>
  400b3c:	00000000 	nop
  400b40:	8e450000 	lw	a1,0(s2)
  400b44:	10000003 	b	400b54 <user_lp_Print+0x234>
  400b48:	26520004 	addiu	s2,s2,4
  400b4c:	8e450000 	lw	a1,0(s2)
  400b50:	26520004 	addiu	s2,s2,4
  400b54:	04a10003 	bgez	a1,400b64 <user_lp_Print+0x244>
  400b58:	00001021 	move	v0,zero
  400b5c:	00052823 	negu	a1,a1
  400b60:	24020001 	li	v0,1
  400b64:	afa80010 	sw	t0,16(sp)
  400b68:	afa70014 	sw	a3,20(sp)
  400b6c:	afa90018 	sw	t1,24(sp)
  400b70:	afa0001c 	sw	zero,28(sp)
  400b74:	27a40020 	addiu	a0,sp,32
  400b78:	2406000a 	li	a2,10
  400b7c:	0c100405 	jal	401014 <user_PrintNum>
  400b80:	00403821 	move	a3,v0
  400b84:	00403021 	move	a2,v0
  400b88:	2c420051 	sltiu	v0,v0,81
  400b8c:	14400007 	bnez	v0,400bac <user_lp_Print+0x28c>
  400b90:	02802021 	move	a0,s4
  400b94:	3c050041 	lui	a1,0x41
  400b98:	24a5a440 	addiu	a1,a1,-23488
  400b9c:	0260f809 	jalr	s3
  400ba0:	2406001d 	li	a2,29
  400ba4:	1000ffff 	b	400ba4 <user_lp_Print+0x284>
  400ba8:	00000000 	nop
  400bac:	0260f809 	jalr	s3
  400bb0:	27a50020 	addiu	a1,sp,32
  400bb4:	1000ff65 	b	40094c <user_lp_Print+0x2c>
  400bb8:	26250001 	addiu	a1,s1,1
  400bbc:	10800004 	beqz	a0,400bd0 <user_lp_Print+0x2b0>
  400bc0:	00000000 	nop
  400bc4:	8e450000 	lw	a1,0(s2)
  400bc8:	10000003 	b	400bd8 <user_lp_Print+0x2b8>
  400bcc:	26520004 	addiu	s2,s2,4
  400bd0:	8e450000 	lw	a1,0(s2)
  400bd4:	26520004 	addiu	s2,s2,4
  400bd8:	afa80010 	sw	t0,16(sp)
  400bdc:	afa70014 	sw	a3,20(sp)
  400be0:	afa90018 	sw	t1,24(sp)
  400be4:	afa0001c 	sw	zero,28(sp)
  400be8:	27a40020 	addiu	a0,sp,32
  400bec:	24060008 	li	a2,8
  400bf0:	0c100405 	jal	401014 <user_PrintNum>
  400bf4:	00003821 	move	a3,zero
  400bf8:	00403021 	move	a2,v0
  400bfc:	2c420051 	sltiu	v0,v0,81
  400c00:	14400007 	bnez	v0,400c20 <user_lp_Print+0x300>
  400c04:	02802021 	move	a0,s4
  400c08:	3c050041 	lui	a1,0x41
  400c0c:	24a5a440 	addiu	a1,a1,-23488
  400c10:	0260f809 	jalr	s3
  400c14:	2406001d 	li	a2,29
  400c18:	1000ffff 	b	400c18 <user_lp_Print+0x2f8>
  400c1c:	00000000 	nop
  400c20:	0260f809 	jalr	s3
  400c24:	27a50020 	addiu	a1,sp,32
  400c28:	1000ff48 	b	40094c <user_lp_Print+0x2c>
  400c2c:	26250001 	addiu	a1,s1,1
  400c30:	10800004 	beqz	a0,400c44 <user_lp_Print+0x324>
  400c34:	00000000 	nop
  400c38:	8e450000 	lw	a1,0(s2)
  400c3c:	10000003 	b	400c4c <user_lp_Print+0x32c>
  400c40:	26520004 	addiu	s2,s2,4
  400c44:	8e450000 	lw	a1,0(s2)
  400c48:	26520004 	addiu	s2,s2,4
  400c4c:	afa80010 	sw	t0,16(sp)
  400c50:	afa70014 	sw	a3,20(sp)
  400c54:	afa90018 	sw	t1,24(sp)
  400c58:	afa0001c 	sw	zero,28(sp)
  400c5c:	27a40020 	addiu	a0,sp,32
  400c60:	2406000a 	li	a2,10
  400c64:	0c100405 	jal	401014 <user_PrintNum>
  400c68:	00003821 	move	a3,zero
  400c6c:	00403021 	move	a2,v0
  400c70:	2c420051 	sltiu	v0,v0,81
  400c74:	14400007 	bnez	v0,400c94 <user_lp_Print+0x374>
  400c78:	02802021 	move	a0,s4
  400c7c:	3c050041 	lui	a1,0x41
  400c80:	24a5a440 	addiu	a1,a1,-23488
  400c84:	0260f809 	jalr	s3
  400c88:	2406001d 	li	a2,29
  400c8c:	1000ffff 	b	400c8c <user_lp_Print+0x36c>
  400c90:	00000000 	nop
  400c94:	0260f809 	jalr	s3
  400c98:	27a50020 	addiu	a1,sp,32
  400c9c:	1000ff2b 	b	40094c <user_lp_Print+0x2c>
  400ca0:	26250001 	addiu	a1,s1,1
  400ca4:	10800004 	beqz	a0,400cb8 <user_lp_Print+0x398>
  400ca8:	00000000 	nop
  400cac:	8e450000 	lw	a1,0(s2)
  400cb0:	10000003 	b	400cc0 <user_lp_Print+0x3a0>
  400cb4:	26520004 	addiu	s2,s2,4
  400cb8:	8e450000 	lw	a1,0(s2)
  400cbc:	26520004 	addiu	s2,s2,4
  400cc0:	afa80010 	sw	t0,16(sp)
  400cc4:	afa70014 	sw	a3,20(sp)
  400cc8:	afa90018 	sw	t1,24(sp)
  400ccc:	afa0001c 	sw	zero,28(sp)
  400cd0:	27a40020 	addiu	a0,sp,32
  400cd4:	24060010 	li	a2,16
  400cd8:	0c100405 	jal	401014 <user_PrintNum>
  400cdc:	00003821 	move	a3,zero
  400ce0:	00403021 	move	a2,v0
  400ce4:	2c420051 	sltiu	v0,v0,81
  400ce8:	14400007 	bnez	v0,400d08 <user_lp_Print+0x3e8>
  400cec:	02802021 	move	a0,s4
  400cf0:	3c050041 	lui	a1,0x41
  400cf4:	24a5a440 	addiu	a1,a1,-23488
  400cf8:	0260f809 	jalr	s3
  400cfc:	2406001d 	li	a2,29
  400d00:	1000ffff 	b	400d00 <user_lp_Print+0x3e0>
  400d04:	00000000 	nop
  400d08:	0260f809 	jalr	s3
  400d0c:	27a50020 	addiu	a1,sp,32
  400d10:	1000ff0e 	b	40094c <user_lp_Print+0x2c>
  400d14:	26250001 	addiu	a1,s1,1
  400d18:	10800004 	beqz	a0,400d2c <user_lp_Print+0x40c>
  400d1c:	00000000 	nop
  400d20:	8e450000 	lw	a1,0(s2)
  400d24:	10000003 	b	400d34 <user_lp_Print+0x414>
  400d28:	26520004 	addiu	s2,s2,4
  400d2c:	8e450000 	lw	a1,0(s2)
  400d30:	26520004 	addiu	s2,s2,4
  400d34:	afa80010 	sw	t0,16(sp)
  400d38:	afa70014 	sw	a3,20(sp)
  400d3c:	afa90018 	sw	t1,24(sp)
  400d40:	24020001 	li	v0,1
  400d44:	afa2001c 	sw	v0,28(sp)
  400d48:	27a40020 	addiu	a0,sp,32
  400d4c:	24060010 	li	a2,16
  400d50:	0c100405 	jal	401014 <user_PrintNum>
  400d54:	00003821 	move	a3,zero
  400d58:	00403021 	move	a2,v0
  400d5c:	2c420051 	sltiu	v0,v0,81
  400d60:	14400007 	bnez	v0,400d80 <user_lp_Print+0x460>
  400d64:	02802021 	move	a0,s4
  400d68:	3c050041 	lui	a1,0x41
  400d6c:	24a5a440 	addiu	a1,a1,-23488
  400d70:	0260f809 	jalr	s3
  400d74:	2406001d 	li	a2,29
  400d78:	1000ffff 	b	400d78 <user_lp_Print+0x458>
  400d7c:	00000000 	nop
  400d80:	0260f809 	jalr	s3
  400d84:	27a50020 	addiu	a1,sp,32
  400d88:	1000fef0 	b	40094c <user_lp_Print+0x2c>
  400d8c:	26250001 	addiu	a1,s1,1
  400d90:	26500004 	addiu	s0,s2,4
  400d94:	27a40020 	addiu	a0,sp,32
  400d98:	82450003 	lb	a1,3(s2)
  400d9c:	0c1003a3 	jal	400e8c <user_PrintChar>
  400da0:	01003021 	move	a2,t0
  400da4:	00403021 	move	a2,v0
  400da8:	2c420051 	sltiu	v0,v0,81
  400dac:	14400007 	bnez	v0,400dcc <user_lp_Print+0x4ac>
  400db0:	02802021 	move	a0,s4
  400db4:	3c050041 	lui	a1,0x41
  400db8:	24a5a440 	addiu	a1,a1,-23488
  400dbc:	0260f809 	jalr	s3
  400dc0:	2406001d 	li	a2,29
  400dc4:	1000ffff 	b	400dc4 <user_lp_Print+0x4a4>
  400dc8:	00000000 	nop
  400dcc:	0260f809 	jalr	s3
  400dd0:	27a50020 	addiu	a1,sp,32
  400dd4:	1000001a 	b	400e40 <user_lp_Print+0x520>
  400dd8:	02009021 	move	s2,s0
  400ddc:	26500004 	addiu	s0,s2,4
  400de0:	27a40020 	addiu	a0,sp,32
  400de4:	8e450000 	lw	a1,0(s2)
  400de8:	0c1003c3 	jal	400f0c <user_PrintString>
  400dec:	01003021 	move	a2,t0
  400df0:	00403021 	move	a2,v0
  400df4:	2c420051 	sltiu	v0,v0,81
  400df8:	14400007 	bnez	v0,400e18 <user_lp_Print+0x4f8>
  400dfc:	02802021 	move	a0,s4
  400e00:	3c050041 	lui	a1,0x41
  400e04:	24a5a440 	addiu	a1,a1,-23488
  400e08:	0260f809 	jalr	s3
  400e0c:	2406001d 	li	a2,29
  400e10:	1000ffff 	b	400e10 <user_lp_Print+0x4f0>
  400e14:	00000000 	nop
  400e18:	0260f809 	jalr	s3
  400e1c:	27a50020 	addiu	a1,sp,32
  400e20:	10000007 	b	400e40 <user_lp_Print+0x520>
  400e24:	02009021 	move	s2,s0
  400e28:	10000005 	b	400e40 <user_lp_Print+0x520>
  400e2c:	2631ffff 	addiu	s1,s1,-1
  400e30:	02802021 	move	a0,s4
  400e34:	02202821 	move	a1,s1
  400e38:	0260f809 	jalr	s3
  400e3c:	24060001 	li	a2,1
  400e40:	1000fec2 	b	40094c <user_lp_Print+0x2c>
  400e44:	26250001 	addiu	a1,s1,1
  400e48:	02802021 	move	a0,s4
  400e4c:	3c050041 	lui	a1,0x41
  400e50:	24a5a460 	addiu	a1,a1,-23456
  400e54:	0260f809 	jalr	s3
  400e58:	24060001 	li	a2,1
  400e5c:	8fbf0084 	lw	ra,132(sp)
  400e60:	8fb40080 	lw	s4,128(sp)
  400e64:	8fb3007c 	lw	s3,124(sp)
  400e68:	8fb20078 	lw	s2,120(sp)
  400e6c:	8fb10074 	lw	s1,116(sp)
  400e70:	8fb00070 	lw	s0,112(sp)
  400e74:	03e00008 	jr	ra
  400e78:	27bd0088 	addiu	sp,sp,136
  400e7c:	1462feb8 	bne	v1,v0,400960 <user_lp_Print+0x40>
  400e80:	24030025 	li	v1,37
  400e84:	1000febf 	b	400984 <user_lp_Print+0x64>
  400e88:	00a08021 	move	s0,a1

00400e8c <user_PrintChar>:
  400e8c:	00052e00 	sll	a1,a1,0x18
  400e90:	00052e03 	sra	a1,a1,0x18
  400e94:	0006182a 	slt	v1,zero,a2
  400e98:	24020001 	li	v0,1
  400e9c:	10e00015 	beqz	a3,400ef4 <user_PrintChar+0x68>
  400ea0:	0043300a 	movz	a2,v0,v1
  400ea4:	28c20002 	slti	v0,a2,2
  400ea8:	14400016 	bnez	v0,400f04 <user_PrintChar+0x78>
  400eac:	a0850000 	sb	a1,0(a0)
  400eb0:	24030001 	li	v1,1
  400eb4:	24050020 	li	a1,32
  400eb8:	00831021 	addu	v0,a0,v1
  400ebc:	24630001 	addiu	v1,v1,1
  400ec0:	10c30010 	beq	a2,v1,400f04 <user_PrintChar+0x78>
  400ec4:	a0450000 	sb	a1,0(v0)
  400ec8:	1000fffc 	b	400ebc <user_PrintChar+0x30>
  400ecc:	00831021 	addu	v0,a0,v1
  400ed0:	00001821 	move	v1,zero
  400ed4:	24080020 	li	t0,32
  400ed8:	00641021 	addu	v0,v1,a0
  400edc:	24630001 	addiu	v1,v1,1
  400ee0:	1467fffd 	bne	v1,a3,400ed8 <user_PrintChar+0x4c>
  400ee4:	a0480000 	sb	t0,0(v0)
  400ee8:	00c41021 	addu	v0,a2,a0
  400eec:	10000005 	b	400f04 <user_PrintChar+0x78>
  400ef0:	a045ffff 	sb	a1,-1(v0)
  400ef4:	24c7ffff 	addiu	a3,a2,-1
  400ef8:	1ce0fff5 	bgtz	a3,400ed0 <user_PrintChar+0x44>
  400efc:	00c41021 	addu	v0,a2,a0
  400f00:	a045ffff 	sb	a1,-1(v0)
  400f04:	03e00008 	jr	ra
  400f08:	00c01021 	move	v0,a2

00400f0c <user_PrintString>:
  400f0c:	80a20000 	lb	v0,0(a1)
  400f10:	14400003 	bnez	v0,400f20 <user_PrintString+0x14>
  400f14:	24a30001 	addiu	v1,a1,1
  400f18:	10000006 	b	400f34 <user_PrintString+0x28>
  400f1c:	00004021 	move	t0,zero
  400f20:	00004021 	move	t0,zero
  400f24:	25080001 	addiu	t0,t0,1
  400f28:	80620000 	lb	v0,0(v1)
  400f2c:	1440fffd 	bnez	v0,400f24 <user_PrintString+0x18>
  400f30:	24630001 	addiu	v1,v1,1
  400f34:	00c8102a 	slt	v0,a2,t0
  400f38:	14e00030 	bnez	a3,400ffc <user_PrintString+0xf0>
  400f3c:	0102300b 	movn	a2,t0,v0
  400f40:	1000002a 	b	400fec <user_PrintString+0xe0>
  400f44:	00c83823 	subu	a3,a2,t0
  400f48:	00003821 	move	a3,zero
  400f4c:	00871021 	addu	v0,a0,a3
  400f50:	00a71821 	addu	v1,a1,a3
  400f54:	90630000 	lbu	v1,0(v1)
  400f58:	24e70001 	addiu	a3,a3,1
  400f5c:	1507fffb 	bne	t0,a3,400f4c <user_PrintString+0x40>
  400f60:	a0430000 	sb	v1,0(v0)
  400f64:	0106102a 	slt	v0,t0,a2
  400f68:	10400028 	beqz	v0,40100c <user_PrintString+0x100>
  400f6c:	00001821 	move	v1,zero
  400f70:	00881021 	addu	v0,a0,t0
  400f74:	24050020 	li	a1,32
  400f78:	00c82023 	subu	a0,a2,t0
  400f7c:	a0450000 	sb	a1,0(v0)
  400f80:	24630001 	addiu	v1,v1,1
  400f84:	10640021 	beq	v1,a0,40100c <user_PrintString+0x100>
  400f88:	24420001 	addiu	v0,v0,1
  400f8c:	1000fffc 	b	400f80 <user_PrintString+0x74>
  400f90:	a0450000 	sb	a1,0(v0)
  400f94:	00001821 	move	v1,zero
  400f98:	24090020 	li	t1,32
  400f9c:	00831021 	addu	v0,a0,v1
  400fa0:	24630001 	addiu	v1,v1,1
  400fa4:	1467fffd 	bne	v1,a3,400f9c <user_PrintString+0x90>
  400fa8:	a0490000 	sb	t1,0(v0)
  400fac:	00e6102a 	slt	v0,a3,a2
  400fb0:	10400016 	beqz	v0,40100c <user_PrintString+0x100>
  400fb4:	00872021 	addu	a0,a0,a3
  400fb8:	00e61023 	subu	v0,a3,a2
  400fbc:	01021021 	addu	v0,t0,v0
  400fc0:	00a21821 	addu	v1,a1,v0
  400fc4:	00002821 	move	a1,zero
  400fc8:	00c73823 	subu	a3,a2,a3
  400fcc:	90620000 	lbu	v0,0(v1)
  400fd0:	a0820000 	sb	v0,0(a0)
  400fd4:	24a50001 	addiu	a1,a1,1
  400fd8:	24630001 	addiu	v1,v1,1
  400fdc:	10a7000b 	beq	a1,a3,40100c <user_PrintString+0x100>
  400fe0:	24840001 	addiu	a0,a0,1
  400fe4:	1000fffa 	b	400fd0 <user_PrintString+0xc4>
  400fe8:	90620000 	lbu	v0,0(v1)
  400fec:	1ce0ffe9 	bgtz	a3,400f94 <user_PrintString+0x88>
  400ff0:	00e6102a 	slt	v0,a3,a2
  400ff4:	1000ffee 	b	400fb0 <user_PrintString+0xa4>
  400ff8:	00000000 	nop
  400ffc:	1d00ffd2 	bgtz	t0,400f48 <user_PrintString+0x3c>
  401000:	0106102a 	slt	v0,t0,a2
  401004:	1000ffd8 	b	400f68 <user_PrintString+0x5c>
  401008:	00000000 	nop
  40100c:	03e00008 	jr	ra
  401010:	00c01021 	move	v0,a2

00401014 <user_PrintNum>:
  401014:	8fa90010 	lw	t1,16(sp)
  401018:	8fac0014 	lw	t4,20(sp)
  40101c:	8fab001c 	lw	t3,28(sp)
  401020:	83aa001b 	lb	t2,27(sp)
  401024:	00804021 	move	t0,a0
  401028:	00a6001b 	divu	zero,a1,a2
  40102c:	00c001f4 	teq	a2,zero,0x7
  401030:	00001810 	mfhi	v1
  401034:	2862000a 	slti	v0,v1,10
  401038:	10400004 	beqz	v0,40104c <user_PrintNum+0x38>
  40103c:	24620030 	addiu	v0,v1,48
  401040:	a1020000 	sb	v0,0(t0)
  401044:	1000000b 	b	401074 <user_PrintNum+0x60>
  401048:	25080001 	addiu	t0,t0,1
  40104c:	11600005 	beqz	t3,401064 <user_PrintNum+0x50>
  401050:	24620057 	addiu	v0,v1,87
  401054:	24620037 	addiu	v0,v1,55
  401058:	a1020000 	sb	v0,0(t0)
  40105c:	10000003 	b	40106c <user_PrintNum+0x58>
  401060:	25080001 	addiu	t0,t0,1
  401064:	a1020000 	sb	v0,0(t0)
  401068:	25080001 	addiu	t0,t0,1
  40106c:	00a6001b 	divu	zero,a1,a2
  401070:	00c001f4 	teq	a2,zero,0x7
  401074:	00002812 	mflo	a1
  401078:	14a0ffeb 	bnez	a1,401028 <user_PrintNum+0x14>
  40107c:	00000000 	nop
  401080:	10e00005 	beqz	a3,401098 <user_PrintNum+0x84>
  401084:	01043023 	subu	a2,t0,a0
  401088:	2402002d 	li	v0,45
  40108c:	a1020000 	sb	v0,0(t0)
  401090:	25080001 	addiu	t0,t0,1
  401094:	01043023 	subu	a2,t0,a0
  401098:	0126102a 	slt	v0,t1,a2
  40109c:	00c2480b 	movn	t1,a2,v0
  4010a0:	24020020 	li	v0,32
  4010a4:	10e00032 	beqz	a3,401170 <user_PrintNum+0x15c>
  4010a8:	004c500b 	movn	t2,v0,t4
  4010ac:	15800031 	bnez	t4,401174 <user_PrintNum+0x160>
  4010b0:	00c9102a 	slt	v0,a2,t1
  4010b4:	24020030 	li	v0,48
  4010b8:	1542002e 	bne	t2,v0,401174 <user_PrintNum+0x160>
  4010bc:	00c9102a 	slt	v0,a2,t1
  4010c0:	24c6ffff 	addiu	a2,a2,-1
  4010c4:	2528ffff 	addiu	t0,t1,-1
  4010c8:	00c8102a 	slt	v0,a2,t0
  4010cc:	10400008 	beqz	v0,4010f0 <user_PrintNum+0xdc>
  4010d0:	01061023 	subu	v0,t0,a2
  4010d4:	00861821 	addu	v1,a0,a2
  4010d8:	00002821 	move	a1,zero
  4010dc:	24070030 	li	a3,48
  4010e0:	a0670000 	sb	a3,0(v1)
  4010e4:	24a50001 	addiu	a1,a1,1
  4010e8:	14a2fffd 	bne	a1,v0,4010e0 <user_PrintNum+0xcc>
  4010ec:	24630001 	addiu	v1,v1,1
  4010f0:	00891821 	addu	v1,a0,t1
  4010f4:	2402002d 	li	v0,45
  4010f8:	1000000d 	b	401130 <user_PrintNum+0x11c>
  4010fc:	a062ffff 	sb	v0,-1(v1)
  401100:	a0aa0000 	sb	t2,0(a1)
  401104:	24630001 	addiu	v1,v1,1
  401108:	01261023 	subu	v0,t1,a2
  40110c:	1462fffc 	bne	v1,v0,401100 <user_PrintNum+0xec>
  401110:	24a50001 	addiu	a1,a1,1
  401114:	11800006 	beqz	t4,401130 <user_PrintNum+0x11c>
  401118:	00000000 	nop
  40111c:	24c6ffff 	addiu	a2,a2,-1
  401120:	1cc00005 	bgtz	a2,401138 <user_PrintNum+0x124>
  401124:	00003821 	move	a3,zero
  401128:	03e00008 	jr	ra
  40112c:	01201021 	move	v0,t1
  401130:	1000fffb 	b	401120 <user_PrintNum+0x10c>
  401134:	2526ffff 	addiu	a2,t1,-1
  401138:	00802821 	move	a1,a0
  40113c:	00862021 	addu	a0,a0,a2
  401140:	80a20000 	lb	v0,0(a1)
  401144:	90830000 	lbu	v1,0(a0)
  401148:	a0a30000 	sb	v1,0(a1)
  40114c:	a0820000 	sb	v0,0(a0)
  401150:	24e70001 	addiu	a3,a3,1
  401154:	24c6ffff 	addiu	a2,a2,-1
  401158:	24a50001 	addiu	a1,a1,1
  40115c:	00e6102a 	slt	v0,a3,a2
  401160:	10400009 	beqz	v0,401188 <user_PrintNum+0x174>
  401164:	2484ffff 	addiu	a0,a0,-1
  401168:	1000fff6 	b	401144 <user_PrintNum+0x130>
  40116c:	80a20000 	lb	v0,0(a1)
  401170:	00c9102a 	slt	v0,a2,t1
  401174:	1040ffe7 	beqz	v0,401114 <user_PrintNum+0x100>
  401178:	00000000 	nop
  40117c:	00862821 	addu	a1,a0,a2
  401180:	1000ffdf 	b	401100 <user_PrintNum+0xec>
  401184:	00001821 	move	v1,zero
  401188:	01201021 	move	v0,t1
  40118c:	03e00008 	jr	ra
  401190:	00000000 	nop
	...

004011a0 <exit>:
  4011a0:	27bdffe8 	addiu	sp,sp,-24
  4011a4:	afbf0010 	sw	ra,16(sp)
  4011a8:	0c1005a9 	jal	4016a4 <syscall_env_destroy>
  4011ac:	00002021 	move	a0,zero
  4011b0:	8fbf0010 	lw	ra,16(sp)
  4011b4:	03e00008 	jr	ra
  4011b8:	27bd0018 	addiu	sp,sp,24

004011bc <libmain>:
  4011bc:	27bdffe8 	addiu	sp,sp,-24
  4011c0:	afbf0010 	sw	ra,16(sp)
  4011c4:	3c020041 	lui	v0,0x41
  4011c8:	0c1001e4 	jal	400790 <umain>
  4011cc:	ac40b060 	sw	zero,-20384(v0)
  4011d0:	0c100468 	jal	4011a0 <exit>
  4011d4:	00000000 	nop
  4011d8:	8fbf0010 	lw	ra,16(sp)
  4011dc:	03e00008 	jr	ra
  4011e0:	27bd0018 	addiu	sp,sp,24
	...

004011f0 <user_bcopy>:
  4011f0:	00c53021 	addu	a2,a2,a1
  4011f4:	24a20003 	addiu	v0,a1,3
  4011f8:	0046102b 	sltu	v0,v0,a2
  4011fc:	1040000a 	beqz	v0,401228 <user_bcopy+0x38>
  401200:	00a6102b 	sltu	v0,a1,a2
  401204:	00a01821 	move	v1,a1
  401208:	8c820000 	lw	v0,0(a0)
  40120c:	aca20000 	sw	v0,0(a1)
  401210:	24a50004 	addiu	a1,a1,4
  401214:	24630007 	addiu	v1,v1,7
  401218:	0066182b 	sltu	v1,v1,a2
  40121c:	1460fff9 	bnez	v1,401204 <user_bcopy+0x14>
  401220:	24840004 	addiu	a0,a0,4
  401224:	00a6102b 	sltu	v0,a1,a2
  401228:	10400006 	beqz	v0,401244 <user_bcopy+0x54>
  40122c:	00a01821 	move	v1,a1
  401230:	90820000 	lbu	v0,0(a0)
  401234:	a0620000 	sb	v0,0(v1)
  401238:	24630001 	addiu	v1,v1,1
  40123c:	1466fffc 	bne	v1,a2,401230 <user_bcopy+0x40>
  401240:	24840001 	addiu	a0,a0,1
  401244:	03e00008 	jr	ra
  401248:	00000000 	nop

0040124c <user_bzero>:
  40124c:	24a2ffff 	addiu	v0,a1,-1
  401250:	04400007 	bltz	v0,401270 <user_bzero+0x24>
  401254:	00801821 	move	v1,a0
  401258:	00821021 	addu	v0,a0,v0
  40125c:	24420001 	addiu	v0,v0,1
  401260:	a0600000 	sb	zero,0(v1)
  401264:	24630001 	addiu	v1,v1,1
  401268:	1462fffd 	bne	v1,v0,401260 <user_bzero+0x14>
  40126c:	00000000 	nop
  401270:	03e00008 	jr	ra
  401274:	00000000 	nop

00401278 <pgfault>:
  401278:	27bdffe0 	addiu	sp,sp,-32
  40127c:	afbf001c 	sw	ra,28(sp)
  401280:	afb00018 	sw	s0,24(sp)
  401284:	00808021 	move	s0,a0
  401288:	3c040041 	lui	a0,0x41
  40128c:	2484a704 	addiu	a0,a0,-22780
  401290:	0c10021d 	jal	400874 <writef>
  401294:	02002821 	move	a1,s0
  401298:	00101302 	srl	v0,s0,0xc
  40129c:	00021080 	sll	v0,v0,0x2
  4012a0:	3c030040 	lui	v1,0x40
  4012a4:	8c636408 	lw	v1,25608(v1)
  4012a8:	00431021 	addu	v0,v0,v1
  4012ac:	8c420000 	lw	v0,0(v0)
  4012b0:	38420001 	xori	v0,v0,0x1
  4012b4:	30420001 	andi	v0,v0,0x1
  4012b8:	10400008 	beqz	v0,4012dc <pgfault+0x64>
  4012bc:	24051000 	li	a1,4096
  4012c0:	3c040041 	lui	a0,0x41
  4012c4:	2484a720 	addiu	a0,a0,-22752
  4012c8:	24050037 	li	a1,55
  4012cc:	3c060041 	lui	a2,0x41
  4012d0:	24c6a728 	addiu	a2,a2,-22744
  4012d4:	0c10022c 	jal	4008b0 <_user_panic>
  4012d8:	02003821 	move	a3,s0
  4012dc:	00002021 	move	a0,zero
  4012e0:	0c1005c3 	jal	40170c <syscall_mem_alloc>
  4012e4:	24060600 	li	a2,1536
  4012e8:	2404f000 	li	a0,-4096
  4012ec:	02042024 	and	a0,s0,a0
  4012f0:	24051000 	li	a1,4096
  4012f4:	0c10047c 	jal	4011f0 <user_bcopy>
  4012f8:	24061000 	li	a2,4096
  4012fc:	24020600 	li	v0,1536
  401300:	afa20010 	sw	v0,16(sp)
  401304:	00002021 	move	a0,zero
  401308:	24051000 	li	a1,4096
  40130c:	00003021 	move	a2,zero
  401310:	0c1005d1 	jal	401744 <syscall_mem_map>
  401314:	02003821 	move	a3,s0
  401318:	3c040041 	lui	a0,0x41
  40131c:	0c10021d 	jal	400874 <writef>
  401320:	2484a754 	addiu	a0,a0,-22700
  401324:	8fbf001c 	lw	ra,28(sp)
  401328:	8fb00018 	lw	s0,24(sp)
  40132c:	03e00008 	jr	ra
  401330:	27bd0020 	addiu	sp,sp,32

00401334 <duppage>:
  401334:	27bdffd8 	addiu	sp,sp,-40
  401338:	afbf0020 	sw	ra,32(sp)
  40133c:	afb1001c 	sw	s1,28(sp)
  401340:	afb00018 	sw	s0,24(sp)
  401344:	00803021 	move	a2,a0
  401348:	00051080 	sll	v0,a1,0x2
  40134c:	3c030040 	lui	v1,0x40
  401350:	8c636408 	lw	v1,25608(v1)
  401354:	00431021 	addu	v0,v0,v1
  401358:	8c430000 	lw	v1,0(v0)
  40135c:	30640fff 	andi	a0,v1,0xfff
  401360:	30620400 	andi	v0,v1,0x400
  401364:	14400004 	bnez	v0,401378 <duppage+0x44>
  401368:	00058b00 	sll	s1,a1,0xc
  40136c:	30620001 	andi	v0,v1,0x1
  401370:	1040000f 	beqz	v0,4013b0 <duppage+0x7c>
  401374:	02202821 	move	a1,s1
  401378:	24100201 	li	s0,513
  40137c:	afb00010 	sw	s0,16(sp)
  401380:	00002021 	move	a0,zero
  401384:	02202821 	move	a1,s1
  401388:	0c1005d1 	jal	401744 <syscall_mem_map>
  40138c:	02203821 	move	a3,s1
  401390:	afb00010 	sw	s0,16(sp)
  401394:	00002021 	move	a0,zero
  401398:	02202821 	move	a1,s1
  40139c:	00003021 	move	a2,zero
  4013a0:	0c1005d1 	jal	401744 <syscall_mem_map>
  4013a4:	02203821 	move	a3,s1
  4013a8:	10000006 	b	4013c4 <duppage+0x90>
  4013ac:	8fbf0020 	lw	ra,32(sp)
  4013b0:	afa40010 	sw	a0,16(sp)
  4013b4:	00002021 	move	a0,zero
  4013b8:	0c1005d1 	jal	401744 <syscall_mem_map>
  4013bc:	02203821 	move	a3,s1
  4013c0:	8fbf0020 	lw	ra,32(sp)
  4013c4:	8fb1001c 	lw	s1,28(sp)
  4013c8:	8fb00018 	lw	s0,24(sp)
  4013cc:	03e00008 	jr	ra
  4013d0:	27bd0028 	addiu	sp,sp,40

004013d4 <fork>:
  4013d4:	27bdffd0 	addiu	sp,sp,-48
  4013d8:	afbf0028 	sw	ra,40(sp)
  4013dc:	afb50024 	sw	s5,36(sp)
  4013e0:	afb40020 	sw	s4,32(sp)
  4013e4:	afb3001c 	sw	s3,28(sp)
  4013e8:	afb20018 	sw	s2,24(sp)
  4013ec:	afb10014 	sw	s1,20(sp)
  4013f0:	afb00010 	sw	s0,16(sp)
  4013f4:	3c040041 	lui	a0,0x41
  4013f8:	0c10021d 	jal	400874 <writef>
  4013fc:	2484a774 	addiu	a0,a0,-22668
  401400:	3c040040 	lui	a0,0x40
  401404:	0c100564 	jal	401590 <set_pgfault_handler>
  401408:	24841278 	addiu	a0,a0,4728
  40140c:	0c1005ee 	jal	4017b8 <syscall_env_alloc>
  401410:	00000000 	nop
  401414:	14400014 	bnez	v0,401468 <fork+0x94>
  401418:	0040a021 	move	s4,v0
  40141c:	3c040041 	lui	a0,0x41
  401420:	0c10021d 	jal	400874 <writef>
  401424:	2484a78c 	addiu	a0,a0,-22644
  401428:	0c100591 	jal	401644 <syscall_getenvid>
  40142c:	00000000 	nop
  401430:	000212c2 	srl	v0,v0,0xb
  401434:	000218c0 	sll	v1,v0,0x3
  401438:	00021140 	sll	v0,v0,0x5
  40143c:	00431023 	subu	v0,v0,v1
  401440:	000218c0 	sll	v1,v0,0x3
  401444:	00431021 	addu	v0,v0,v1
  401448:	3c030040 	lui	v1,0x40
  40144c:	8c636400 	lw	v1,25600(v1)
  401450:	00431021 	addu	v0,v0,v1
  401454:	2442ff28 	addiu	v0,v0,-216
  401458:	3c030041 	lui	v1,0x41
  40145c:	ac62b060 	sw	v0,-20384(v1)
  401460:	10000037 	b	401540 <fork+0x16c>
  401464:	00001021 	move	v0,zero
  401468:	3c040041 	lui	a0,0x41
  40146c:	2484a7a8 	addiu	a0,a0,-22616
  401470:	3c050040 	lui	a1,0x40
  401474:	24a5640c 	addiu	a1,a1,25612
  401478:	3c060040 	lui	a2,0x40
  40147c:	0c10021d 	jal	400874 <writef>
  401480:	24c66408 	addiu	a2,a2,25608
  401484:	00008021 	move	s0,zero
  401488:	3c120040 	lui	s2,0x40
  40148c:	3c130040 	lui	s3,0x40
  401490:	3c150041 	lui	s5,0x41
  401494:	3c020007 	lui	v0,0x7
  401498:	3451f3ff 	ori	s1,v0,0xf3ff
  40149c:	00101282 	srl	v0,s0,0xa
  4014a0:	00021080 	sll	v0,v0,0x2
  4014a4:	8e43640c 	lw	v1,25612(s2)
  4014a8:	00433021 	addu	a2,v0,v1
  4014ac:	8cc20000 	lw	v0,0(a2)
  4014b0:	1040000e 	beqz	v0,4014ec <fork+0x118>
  4014b4:	00101080 	sll	v0,s0,0x2
  4014b8:	8e636408 	lw	v1,25608(s3)
  4014bc:	00433821 	addu	a3,v0,v1
  4014c0:	8ce20000 	lw	v0,0(a3)
  4014c4:	10400009 	beqz	v0,4014ec <fork+0x118>
  4014c8:	00000000 	nop
  4014cc:	8cc60000 	lw	a2,0(a2)
  4014d0:	8ce70000 	lw	a3,0(a3)
  4014d4:	26a4a7c0 	addiu	a0,s5,-22592
  4014d8:	0c10021d 	jal	400874 <writef>
  4014dc:	02002821 	move	a1,s0
  4014e0:	02802021 	move	a0,s4
  4014e4:	0c1004cd 	jal	401334 <duppage>
  4014e8:	02002821 	move	a1,s0
  4014ec:	26100001 	addiu	s0,s0,1
  4014f0:	1611ffeb 	bne	s0,s1,4014a0 <fork+0xcc>
  4014f4:	00101282 	srl	v0,s0,0xa
  4014f8:	02802021 	move	a0,s4
  4014fc:	3c057f3f 	lui	a1,0x7f3f
  401500:	34a5f000 	ori	a1,a1,0xf000
  401504:	0c1005c3 	jal	40170c <syscall_mem_alloc>
  401508:	24060600 	li	a2,1536
  40150c:	04410003 	bgez	v0,40151c <fork+0x148>
  401510:	3c040041 	lui	a0,0x41
  401514:	0c10021d 	jal	400874 <writef>
  401518:	2484a7e4 	addiu	a0,a0,-22556
  40151c:	02802021 	move	a0,s4
  401520:	3c050040 	lui	a1,0x40
  401524:	24a5000c 	addiu	a1,a1,12
  401528:	0c1005b5 	jal	4016d4 <syscall_set_pgfault_handler>
  40152c:	3c067f40 	lui	a2,0x7f40
  401530:	02802021 	move	a0,s4
  401534:	0c100602 	jal	401808 <syscall_set_env_status>
  401538:	24050001 	li	a1,1
  40153c:	02801021 	move	v0,s4
  401540:	8fbf0028 	lw	ra,40(sp)
  401544:	8fb50024 	lw	s5,36(sp)
  401548:	8fb40020 	lw	s4,32(sp)
  40154c:	8fb3001c 	lw	s3,28(sp)
  401550:	8fb20018 	lw	s2,24(sp)
  401554:	8fb10014 	lw	s1,20(sp)
  401558:	8fb00010 	lw	s0,16(sp)
  40155c:	03e00008 	jr	ra
  401560:	27bd0030 	addiu	sp,sp,48

00401564 <sfork>:
  401564:	27bdffe8 	addiu	sp,sp,-24
  401568:	afbf0010 	sw	ra,16(sp)
  40156c:	3c040041 	lui	a0,0x41
  401570:	2484a720 	addiu	a0,a0,-22752
  401574:	240500a6 	li	a1,166
  401578:	3c060041 	lui	a2,0x41
  40157c:	0c10022c 	jal	4008b0 <_user_panic>
  401580:	24c6a80c 	addiu	a2,a2,-22516
	...

00401590 <set_pgfault_handler>:
  401590:	27bdffe8 	addiu	sp,sp,-24
  401594:	afbf0014 	sw	ra,20(sp)
  401598:	afb00010 	sw	s0,16(sp)
  40159c:	3c020040 	lui	v0,0x40
  4015a0:	8c426410 	lw	v0,25616(v0)
  4015a4:	14400013 	bnez	v0,4015f4 <set_pgfault_handler+0x64>
  4015a8:	00808021 	move	s0,a0
  4015ac:	00002021 	move	a0,zero
  4015b0:	3c057f3f 	lui	a1,0x7f3f
  4015b4:	34a5f000 	ori	a1,a1,0xf000
  4015b8:	0c1005c3 	jal	40170c <syscall_mem_alloc>
  4015bc:	24060600 	li	a2,1536
  4015c0:	04400007 	bltz	v0,4015e0 <set_pgfault_handler+0x50>
  4015c4:	3c050040 	lui	a1,0x40
  4015c8:	00002021 	move	a0,zero
  4015cc:	24a5000c 	addiu	a1,a1,12
  4015d0:	0c1005b5 	jal	4016d4 <syscall_set_pgfault_handler>
  4015d4:	3c067f40 	lui	a2,0x7f40
  4015d8:	04410007 	bgez	v0,4015f8 <set_pgfault_handler+0x68>
  4015dc:	3c020040 	lui	v0,0x40
  4015e0:	3c040041 	lui	a0,0x41
  4015e4:	0c10021d 	jal	400874 <writef>
  4015e8:	2484a824 	addiu	a0,a0,-22492
  4015ec:	10000004 	b	401600 <set_pgfault_handler+0x70>
  4015f0:	8fbf0014 	lw	ra,20(sp)
  4015f4:	3c020040 	lui	v0,0x40
  4015f8:	ac506410 	sw	s0,25616(v0)
  4015fc:	8fbf0014 	lw	ra,20(sp)
  401600:	8fb00010 	lw	s0,16(sp)
  401604:	03e00008 	jr	ra
  401608:	27bd0018 	addiu	sp,sp,24
  40160c:	00000000 	nop

00401610 <syscall_putchar>:
  401610:	27bdffe0 	addiu	sp,sp,-32
  401614:	afbf0018 	sw	ra,24(sp)
  401618:	00042e00 	sll	a1,a0,0x18
  40161c:	00052e03 	sra	a1,a1,0x18
  401620:	afa00010 	sw	zero,16(sp)
  401624:	afa00014 	sw	zero,20(sp)
  401628:	24042537 	li	a0,9527
  40162c:	00003021 	move	a2,zero
  401630:	0c100030 	jal	4000c0 <msyscall>
  401634:	00003821 	move	a3,zero
  401638:	8fbf0018 	lw	ra,24(sp)
  40163c:	03e00008 	jr	ra
  401640:	27bd0020 	addiu	sp,sp,32

00401644 <syscall_getenvid>:
  401644:	27bdffe0 	addiu	sp,sp,-32
  401648:	afbf0018 	sw	ra,24(sp)
  40164c:	afa00010 	sw	zero,16(sp)
  401650:	afa00014 	sw	zero,20(sp)
  401654:	24042538 	li	a0,9528
  401658:	00002821 	move	a1,zero
  40165c:	00003021 	move	a2,zero
  401660:	0c100030 	jal	4000c0 <msyscall>
  401664:	00003821 	move	a3,zero
  401668:	8fbf0018 	lw	ra,24(sp)
  40166c:	03e00008 	jr	ra
  401670:	27bd0020 	addiu	sp,sp,32

00401674 <syscall_yield>:
  401674:	27bdffe0 	addiu	sp,sp,-32
  401678:	afbf0018 	sw	ra,24(sp)
  40167c:	afa00010 	sw	zero,16(sp)
  401680:	afa00014 	sw	zero,20(sp)
  401684:	24042539 	li	a0,9529
  401688:	00002821 	move	a1,zero
  40168c:	00003021 	move	a2,zero
  401690:	0c100030 	jal	4000c0 <msyscall>
  401694:	00003821 	move	a3,zero
  401698:	8fbf0018 	lw	ra,24(sp)
  40169c:	03e00008 	jr	ra
  4016a0:	27bd0020 	addiu	sp,sp,32

004016a4 <syscall_env_destroy>:
  4016a4:	27bdffe0 	addiu	sp,sp,-32
  4016a8:	afbf0018 	sw	ra,24(sp)
  4016ac:	00802821 	move	a1,a0
  4016b0:	afa00010 	sw	zero,16(sp)
  4016b4:	afa00014 	sw	zero,20(sp)
  4016b8:	2404253a 	li	a0,9530
  4016bc:	00003021 	move	a2,zero
  4016c0:	0c100030 	jal	4000c0 <msyscall>
  4016c4:	00003821 	move	a3,zero
  4016c8:	8fbf0018 	lw	ra,24(sp)
  4016cc:	03e00008 	jr	ra
  4016d0:	27bd0020 	addiu	sp,sp,32

004016d4 <syscall_set_pgfault_handler>:
  4016d4:	27bdffe0 	addiu	sp,sp,-32
  4016d8:	afbf0018 	sw	ra,24(sp)
  4016dc:	00801021 	move	v0,a0
  4016e0:	00a01821 	move	v1,a1
  4016e4:	00c03821 	move	a3,a2
  4016e8:	afa00010 	sw	zero,16(sp)
  4016ec:	afa00014 	sw	zero,20(sp)
  4016f0:	2404253b 	li	a0,9531
  4016f4:	00402821 	move	a1,v0
  4016f8:	0c100030 	jal	4000c0 <msyscall>
  4016fc:	00603021 	move	a2,v1
  401700:	8fbf0018 	lw	ra,24(sp)
  401704:	03e00008 	jr	ra
  401708:	27bd0020 	addiu	sp,sp,32

0040170c <syscall_mem_alloc>:
  40170c:	27bdffe0 	addiu	sp,sp,-32
  401710:	afbf0018 	sw	ra,24(sp)
  401714:	00801021 	move	v0,a0
  401718:	00a01821 	move	v1,a1
  40171c:	00c03821 	move	a3,a2
  401720:	afa00010 	sw	zero,16(sp)
  401724:	afa00014 	sw	zero,20(sp)
  401728:	2404253c 	li	a0,9532
  40172c:	00402821 	move	a1,v0
  401730:	0c100030 	jal	4000c0 <msyscall>
  401734:	00603021 	move	a2,v1
  401738:	8fbf0018 	lw	ra,24(sp)
  40173c:	03e00008 	jr	ra
  401740:	27bd0020 	addiu	sp,sp,32

00401744 <syscall_mem_map>:
  401744:	27bdffe0 	addiu	sp,sp,-32
  401748:	afbf0018 	sw	ra,24(sp)
  40174c:	00801821 	move	v1,a0
  401750:	00a04021 	move	t0,a1
  401754:	00c04821 	move	t1,a2
  401758:	afa70010 	sw	a3,16(sp)
  40175c:	8fa20030 	lw	v0,48(sp)
  401760:	afa20014 	sw	v0,20(sp)
  401764:	2404253d 	li	a0,9533
  401768:	00602821 	move	a1,v1
  40176c:	01003021 	move	a2,t0
  401770:	0c100030 	jal	4000c0 <msyscall>
  401774:	01203821 	move	a3,t1
  401778:	8fbf0018 	lw	ra,24(sp)
  40177c:	03e00008 	jr	ra
  401780:	27bd0020 	addiu	sp,sp,32

00401784 <syscall_mem_unmap>:
  401784:	27bdffe0 	addiu	sp,sp,-32
  401788:	afbf0018 	sw	ra,24(sp)
  40178c:	00801021 	move	v0,a0
  401790:	00a03021 	move	a2,a1
  401794:	afa00010 	sw	zero,16(sp)
  401798:	afa00014 	sw	zero,20(sp)
  40179c:	2404253e 	li	a0,9534
  4017a0:	00402821 	move	a1,v0
  4017a4:	0c100030 	jal	4000c0 <msyscall>
  4017a8:	00003821 	move	a3,zero
  4017ac:	8fbf0018 	lw	ra,24(sp)
  4017b0:	03e00008 	jr	ra
  4017b4:	27bd0020 	addiu	sp,sp,32

004017b8 <syscall_env_alloc>:
  4017b8:	27bdffe0 	addiu	sp,sp,-32
  4017bc:	afbf001c 	sw	ra,28(sp)
  4017c0:	afb00018 	sw	s0,24(sp)
  4017c4:	afa00010 	sw	zero,16(sp)
  4017c8:	afa00014 	sw	zero,20(sp)
  4017cc:	2404253f 	li	a0,9535
  4017d0:	00002821 	move	a1,zero
  4017d4:	00003021 	move	a2,zero
  4017d8:	0c100030 	jal	4000c0 <msyscall>
  4017dc:	00003821 	move	a3,zero
  4017e0:	00408021 	move	s0,v0
  4017e4:	3c040041 	lui	a0,0x41
  4017e8:	2484a840 	addiu	a0,a0,-22464
  4017ec:	0c10021d 	jal	400874 <writef>
  4017f0:	00402821 	move	a1,v0
  4017f4:	02001021 	move	v0,s0
  4017f8:	8fbf001c 	lw	ra,28(sp)
  4017fc:	8fb00018 	lw	s0,24(sp)
  401800:	03e00008 	jr	ra
  401804:	27bd0020 	addiu	sp,sp,32

00401808 <syscall_set_env_status>:
  401808:	27bdffe0 	addiu	sp,sp,-32
  40180c:	afbf0018 	sw	ra,24(sp)
  401810:	00801021 	move	v0,a0
  401814:	00a03021 	move	a2,a1
  401818:	afa00010 	sw	zero,16(sp)
  40181c:	afa00014 	sw	zero,20(sp)
  401820:	24042540 	li	a0,9536
  401824:	00402821 	move	a1,v0
  401828:	0c100030 	jal	4000c0 <msyscall>
  40182c:	00003821 	move	a3,zero
  401830:	8fbf0018 	lw	ra,24(sp)
  401834:	03e00008 	jr	ra
  401838:	27bd0020 	addiu	sp,sp,32

0040183c <syscall_set_trapframe>:
  40183c:	27bdffe0 	addiu	sp,sp,-32
  401840:	afbf0018 	sw	ra,24(sp)
  401844:	00801021 	move	v0,a0
  401848:	00a03021 	move	a2,a1
  40184c:	afa00010 	sw	zero,16(sp)
  401850:	afa00014 	sw	zero,20(sp)
  401854:	24042541 	li	a0,9537
  401858:	00402821 	move	a1,v0
  40185c:	0c100030 	jal	4000c0 <msyscall>
  401860:	00003821 	move	a3,zero
  401864:	8fbf0018 	lw	ra,24(sp)
  401868:	03e00008 	jr	ra
  40186c:	27bd0020 	addiu	sp,sp,32

00401870 <syscall_panic>:
  401870:	27bdffe0 	addiu	sp,sp,-32
  401874:	afbf0018 	sw	ra,24(sp)
  401878:	00802821 	move	a1,a0
  40187c:	afa00010 	sw	zero,16(sp)
  401880:	afa00014 	sw	zero,20(sp)
  401884:	24042542 	li	a0,9538
  401888:	00003021 	move	a2,zero
  40188c:	0c100030 	jal	4000c0 <msyscall>
  401890:	00003821 	move	a3,zero
  401894:	8fbf0018 	lw	ra,24(sp)
  401898:	03e00008 	jr	ra
  40189c:	27bd0020 	addiu	sp,sp,32

004018a0 <syscall_ipc_can_send>:
  4018a0:	27bdffe0 	addiu	sp,sp,-32
  4018a4:	afbf0018 	sw	ra,24(sp)
  4018a8:	00801021 	move	v0,a0
  4018ac:	00a01821 	move	v1,a1
  4018b0:	00c04021 	move	t0,a2
  4018b4:	afa70010 	sw	a3,16(sp)
  4018b8:	afa00014 	sw	zero,20(sp)
  4018bc:	24042543 	li	a0,9539
  4018c0:	00402821 	move	a1,v0
  4018c4:	00603021 	move	a2,v1
  4018c8:	0c100030 	jal	4000c0 <msyscall>
  4018cc:	01003821 	move	a3,t0
  4018d0:	8fbf0018 	lw	ra,24(sp)
  4018d4:	03e00008 	jr	ra
  4018d8:	27bd0020 	addiu	sp,sp,32

004018dc <syscall_ipc_recv>:
  4018dc:	27bdffe0 	addiu	sp,sp,-32
  4018e0:	afbf0018 	sw	ra,24(sp)
  4018e4:	00802821 	move	a1,a0
  4018e8:	afa00010 	sw	zero,16(sp)
  4018ec:	afa00014 	sw	zero,20(sp)
  4018f0:	24042544 	li	a0,9540
  4018f4:	00003021 	move	a2,zero
  4018f8:	0c100030 	jal	4000c0 <msyscall>
  4018fc:	00003821 	move	a3,zero
  401900:	8fbf0018 	lw	ra,24(sp)
  401904:	03e00008 	jr	ra
  401908:	27bd0020 	addiu	sp,sp,32
  40190c:	00000000 	nop

00401910 <ipc_send>:
  401910:	27bdffd8 	addiu	sp,sp,-40
  401914:	afbf0024 	sw	ra,36(sp)
  401918:	afb40020 	sw	s4,32(sp)
  40191c:	afb3001c 	sw	s3,28(sp)
  401920:	afb20018 	sw	s2,24(sp)
  401924:	afb10014 	sw	s1,20(sp)
  401928:	afb00010 	sw	s0,16(sp)
  40192c:	0080a021 	move	s4,a0
  401930:	00a09821 	move	s3,a1
  401934:	00c09021 	move	s2,a2
  401938:	00e08821 	move	s1,a3
  40193c:	10000003 	b	40194c <ipc_send+0x3c>
  401940:	2410fffa 	li	s0,-6
  401944:	0c10059d 	jal	401674 <syscall_yield>
  401948:	00000000 	nop
  40194c:	02802021 	move	a0,s4
  401950:	02602821 	move	a1,s3
  401954:	02403021 	move	a2,s2
  401958:	0c100628 	jal	4018a0 <syscall_ipc_can_send>
  40195c:	02203821 	move	a3,s1
  401960:	1050fff8 	beq	v0,s0,401944 <ipc_send+0x34>
  401964:	00000000 	nop
  401968:	10400008 	beqz	v0,40198c <ipc_send+0x7c>
  40196c:	8fbf0024 	lw	ra,36(sp)
  401970:	3c040041 	lui	a0,0x41
  401974:	2484a864 	addiu	a0,a0,-22428
  401978:	24050017 	li	a1,23
  40197c:	3c060041 	lui	a2,0x41
  401980:	24c6a86c 	addiu	a2,a2,-22420
  401984:	0c10022c 	jal	4008b0 <_user_panic>
  401988:	00403821 	move	a3,v0
  40198c:	8fb40020 	lw	s4,32(sp)
  401990:	8fb3001c 	lw	s3,28(sp)
  401994:	8fb20018 	lw	s2,24(sp)
  401998:	8fb10014 	lw	s1,20(sp)
  40199c:	8fb00010 	lw	s0,16(sp)
  4019a0:	03e00008 	jr	ra
  4019a4:	27bd0028 	addiu	sp,sp,40

004019a8 <ipc_recv>:
  4019a8:	27bdffe0 	addiu	sp,sp,-32
  4019ac:	afbf0018 	sw	ra,24(sp)
  4019b0:	afb10014 	sw	s1,20(sp)
  4019b4:	afb00010 	sw	s0,16(sp)
  4019b8:	00808021 	move	s0,a0
  4019bc:	00c08821 	move	s1,a2
  4019c0:	0c100637 	jal	4018dc <syscall_ipc_recv>
  4019c4:	00a02021 	move	a0,a1
  4019c8:	12000004 	beqz	s0,4019dc <ipc_recv+0x34>
  4019cc:	3c020041 	lui	v0,0x41
  4019d0:	8c42b060 	lw	v0,-20384(v0)
  4019d4:	8c4200bc 	lw	v0,188(v0)
  4019d8:	ae020000 	sw	v0,0(s0)
  4019dc:	12200004 	beqz	s1,4019f0 <ipc_recv+0x48>
  4019e0:	3c020041 	lui	v0,0x41
  4019e4:	8c42b060 	lw	v0,-20384(v0)
  4019e8:	8c4200c8 	lw	v0,200(v0)
  4019ec:	ae220000 	sw	v0,0(s1)
  4019f0:	3c020041 	lui	v0,0x41
  4019f4:	8c42b060 	lw	v0,-20384(v0)
  4019f8:	8c4200b8 	lw	v0,184(v0)
  4019fc:	8fbf0018 	lw	ra,24(sp)
  401a00:	8fb10014 	lw	s1,20(sp)
  401a04:	8fb00010 	lw	s0,16(sp)
  401a08:	03e00008 	jr	ra
  401a0c:	27bd0020 	addiu	sp,sp,32

00401a10 <strlen>:
  401a10:	80820000 	lb	v0,0(a0)
  401a14:	10400005 	beqz	v0,401a2c <strlen+0x1c>
  401a18:	00001821 	move	v1,zero
  401a1c:	24840001 	addiu	a0,a0,1
  401a20:	80820000 	lb	v0,0(a0)
  401a24:	1440fffd 	bnez	v0,401a1c <strlen+0xc>
  401a28:	24630001 	addiu	v1,v1,1
  401a2c:	03e00008 	jr	ra
  401a30:	00601021 	move	v0,v1

00401a34 <strcpy>:
  401a34:	00801821 	move	v1,a0
  401a38:	80a20000 	lb	v0,0(a1)
  401a3c:	a0620000 	sb	v0,0(v1)
  401a40:	24630001 	addiu	v1,v1,1
  401a44:	1440fffc 	bnez	v0,401a38 <strcpy+0x4>
  401a48:	24a50001 	addiu	a1,a1,1
  401a4c:	03e00008 	jr	ra
  401a50:	00801021 	move	v0,a0

00401a54 <strchr>:
  401a54:	00801021 	move	v0,a0
  401a58:	00052e00 	sll	a1,a1,0x18
  401a5c:	80830000 	lb	v1,0(a0)
  401a60:	1460000b 	bnez	v1,401a90 <strchr+0x3c>
  401a64:	00052e03 	sra	a1,a1,0x18
  401a68:	03e00008 	jr	ra
  401a6c:	00001021 	move	v0,zero
  401a70:	10a30009 	beq	a1,v1,401a98 <strchr+0x44>
  401a74:	00000000 	nop
  401a78:	24420001 	addiu	v0,v0,1
  401a7c:	80430000 	lb	v1,0(v0)
  401a80:	1460fffb 	bnez	v1,401a70 <strchr+0x1c>
  401a84:	00000000 	nop
  401a88:	03e00008 	jr	ra
  401a8c:	00001021 	move	v0,zero
  401a90:	14a3fff9 	bne	a1,v1,401a78 <strchr+0x24>
  401a94:	00000000 	nop
  401a98:	03e00008 	jr	ra
  401a9c:	00000000 	nop

00401aa0 <memcpy>:
  401aa0:	10c00009 	beqz	a2,401ac8 <memcpy+0x28>
  401aa4:	24c2ffff 	addiu	v0,a2,-1
  401aa8:	00801821 	move	v1,a0
  401aac:	00821021 	addu	v0,a0,v0
  401ab0:	24460001 	addiu	a2,v0,1
  401ab4:	90a20000 	lbu	v0,0(a1)
  401ab8:	a0620000 	sb	v0,0(v1)
  401abc:	24630001 	addiu	v1,v1,1
  401ac0:	1466fffc 	bne	v1,a2,401ab4 <memcpy+0x14>
  401ac4:	24a50001 	addiu	a1,a1,1
  401ac8:	03e00008 	jr	ra
  401acc:	00801021 	move	v0,a0

00401ad0 <strcmp>:
  401ad0:	80830000 	lb	v1,0(a0)
  401ad4:	1060000a 	beqz	v1,401b00 <strcmp+0x30>
  401ad8:	00000000 	nop
  401adc:	10000011 	b	401b24 <strcmp+0x54>
  401ae0:	80a20000 	lb	v0,0(a1)
  401ae4:	24840001 	addiu	a0,a0,1
  401ae8:	80830000 	lb	v1,0(a0)
  401aec:	10600004 	beqz	v1,401b00 <strcmp+0x30>
  401af0:	24a50001 	addiu	a1,a1,1
  401af4:	80a20000 	lb	v0,0(a1)
  401af8:	1043fffa 	beq	v0,v1,401ae4 <strcmp+0x14>
  401afc:	00000000 	nop
  401b00:	306300ff 	andi	v1,v1,0xff
  401b04:	90a50000 	lbu	a1,0(a1)
  401b08:	0065102b 	sltu	v0,v1,a1
  401b0c:	10400003 	beqz	v0,401b1c <strcmp+0x4c>
  401b10:	00000000 	nop
  401b14:	03e00008 	jr	ra
  401b18:	2402ffff 	li	v0,-1
  401b1c:	03e00008 	jr	ra
  401b20:	00a3102b 	sltu	v0,a1,v1
  401b24:	1443fff7 	bne	v0,v1,401b04 <strcmp+0x34>
  401b28:	306300ff 	andi	v1,v1,0xff
  401b2c:	1000ffee 	b	401ae8 <strcmp+0x18>
  401b30:	24840001 	addiu	a0,a0,1
	...

00401b40 <dev_lookup>:
  401b40:	27bdffe8 	addiu	sp,sp,-24
  401b44:	afbf0010 	sw	ra,16(sp)
  401b48:	00803021 	move	a2,a0
  401b4c:	3c020041 	lui	v0,0x41
  401b50:	8c44b034 	lw	a0,-20428(v0)
  401b54:	14800015 	bnez	a0,401bac <dev_lookup+0x6c>
  401b58:	3c020041 	lui	v0,0x41
  401b5c:	1000000d 	b	401b94 <dev_lookup+0x54>
  401b60:	8c42b060 	lw	v0,-20384(v0)
  401b64:	8c820000 	lw	v0,0(a0)
  401b68:	14c20006 	bne	a2,v0,401b84 <dev_lookup+0x44>
  401b6c:	24630004 	addiu	v1,v1,4
  401b70:	aca40000 	sw	a0,0(a1)
  401b74:	10000012 	b	401bc0 <dev_lookup+0x80>
  401b78:	00001021 	move	v0,zero
  401b7c:	3c020041 	lui	v0,0x41
  401b80:	2443b038 	addiu	v1,v0,-20424
  401b84:	8c640000 	lw	a0,0(v1)
  401b88:	1480fff6 	bnez	a0,401b64 <dev_lookup+0x24>
  401b8c:	3c020041 	lui	v0,0x41
  401b90:	8c42b060 	lw	v0,-20384(v0)
  401b94:	3c040041 	lui	a0,0x41
  401b98:	2484a884 	addiu	a0,a0,-22396
  401b9c:	0c10021d 	jal	400874 <writef>
  401ba0:	8c4500a4 	lw	a1,164(v0)
  401ba4:	10000006 	b	401bc0 <dev_lookup+0x80>
  401ba8:	2402fffd 	li	v0,-3
  401bac:	8c820000 	lw	v0,0(a0)
  401bb0:	14c2fff2 	bne	a2,v0,401b7c <dev_lookup+0x3c>
  401bb4:	00000000 	nop
  401bb8:	1000ffee 	b	401b74 <dev_lookup+0x34>
  401bbc:	aca40000 	sw	a0,0(a1)
  401bc0:	8fbf0010 	lw	ra,16(sp)
  401bc4:	03e00008 	jr	ra
  401bc8:	27bd0018 	addiu	sp,sp,24

00401bcc <fd_alloc>:
  401bcc:	3c020040 	lui	v0,0x40
  401bd0:	8c46640c 	lw	a2,25612(v0)
  401bd4:	3c05cfc0 	lui	a1,0xcfc0
  401bd8:	3c080040 	lui	t0,0x40
  401bdc:	3c02cfc1 	lui	v0,0xcfc1
  401be0:	3447f000 	ori	a3,v0,0xf000
  401be4:	00051582 	srl	v0,a1,0x16
  401be8:	00021080 	sll	v0,v0,0x2
  401bec:	00c21021 	addu	v0,a2,v0
  401bf0:	8c420000 	lw	v0,0(v0)
  401bf4:	30420200 	andi	v0,v0,0x200
  401bf8:	14400003 	bnez	v0,401c08 <fd_alloc+0x3c>
  401bfc:	8d036408 	lw	v1,25608(t0)
  401c00:	03e00008 	jr	ra
  401c04:	ac850000 	sw	a1,0(a0)
  401c08:	00051302 	srl	v0,a1,0xc
  401c0c:	00021080 	sll	v0,v0,0x2
  401c10:	00431021 	addu	v0,v0,v1
  401c14:	8c420000 	lw	v0,0(v0)
  401c18:	30420200 	andi	v0,v0,0x200
  401c1c:	14400004 	bnez	v0,401c30 <fd_alloc+0x64>
  401c20:	24a51000 	addiu	a1,a1,4096
  401c24:	24a5f000 	addiu	a1,a1,-4096
  401c28:	03e00008 	jr	ra
  401c2c:	ac850000 	sw	a1,0(a0)
  401c30:	14a7ffec 	bne	a1,a3,401be4 <fd_alloc+0x18>
  401c34:	2402fff8 	li	v0,-8
  401c38:	03e00008 	jr	ra
  401c3c:	00000000 	nop

00401c40 <fd_close>:
  401c40:	27bdffe8 	addiu	sp,sp,-24
  401c44:	afbf0010 	sw	ra,16(sp)
  401c48:	00802821 	move	a1,a0
  401c4c:	0c1005e1 	jal	401784 <syscall_mem_unmap>
  401c50:	00002021 	move	a0,zero
  401c54:	8fbf0010 	lw	ra,16(sp)
  401c58:	03e00008 	jr	ra
  401c5c:	27bd0018 	addiu	sp,sp,24

00401c60 <fd_lookup>:
  401c60:	28820020 	slti	v0,a0,32
  401c64:	1040000e 	beqz	v0,401ca0 <fd_lookup+0x40>
  401c68:	00041b00 	sll	v1,a0,0xc
  401c6c:	3c02cfc0 	lui	v0,0xcfc0
  401c70:	00622021 	addu	a0,v1,v0
  401c74:	00041282 	srl	v0,a0,0xa
  401c78:	3c030040 	lui	v1,0x40
  401c7c:	8c636408 	lw	v1,25608(v1)
  401c80:	00431021 	addu	v0,v0,v1
  401c84:	8c420000 	lw	v0,0(v0)
  401c88:	30420200 	andi	v0,v0,0x200
  401c8c:	10400004 	beqz	v0,401ca0 <fd_lookup+0x40>
  401c90:	00000000 	nop
  401c94:	aca40000 	sw	a0,0(a1)
  401c98:	03e00008 	jr	ra
  401c9c:	00001021 	move	v0,zero
  401ca0:	03e00008 	jr	ra
  401ca4:	2402fffd 	li	v0,-3

00401ca8 <fd2data>:
  401ca8:	27bdffe8 	addiu	sp,sp,-24
  401cac:	afbf0010 	sw	ra,16(sp)
  401cb0:	0c100734 	jal	401cd0 <fd2num>
  401cb4:	00000000 	nop
  401cb8:	00021d80 	sll	v1,v0,0x16
  401cbc:	3c02d000 	lui	v0,0xd000
  401cc0:	00621021 	addu	v0,v1,v0
  401cc4:	8fbf0010 	lw	ra,16(sp)
  401cc8:	03e00008 	jr	ra
  401ccc:	27bd0018 	addiu	sp,sp,24

00401cd0 <fd2num>:
  401cd0:	3c023040 	lui	v0,0x3040
  401cd4:	00821021 	addu	v0,a0,v0
  401cd8:	03e00008 	jr	ra
  401cdc:	00021302 	srl	v0,v0,0xc

00401ce0 <close>:
  401ce0:	27bdffe0 	addiu	sp,sp,-32
  401ce4:	afbf001c 	sw	ra,28(sp)
  401ce8:	afb00018 	sw	s0,24(sp)
  401cec:	0c100718 	jal	401c60 <fd_lookup>
  401cf0:	27a50014 	addiu	a1,sp,20
  401cf4:	0440000e 	bltz	v0,401d30 <close+0x50>
  401cf8:	00408021 	move	s0,v0
  401cfc:	8fa20014 	lw	v0,20(sp)
  401d00:	8c440000 	lw	a0,0(v0)
  401d04:	0c1006d0 	jal	401b40 <dev_lookup>
  401d08:	27a50010 	addiu	a1,sp,16
  401d0c:	04400008 	bltz	v0,401d30 <close+0x50>
  401d10:	00408021 	move	s0,v0
  401d14:	8fa20010 	lw	v0,16(sp)
  401d18:	8c420010 	lw	v0,16(v0)
  401d1c:	0040f809 	jalr	v0
  401d20:	8fa40014 	lw	a0,20(sp)
  401d24:	00408021 	move	s0,v0
  401d28:	0c100710 	jal	401c40 <fd_close>
  401d2c:	8fa40014 	lw	a0,20(sp)
  401d30:	02001021 	move	v0,s0
  401d34:	8fbf001c 	lw	ra,28(sp)
  401d38:	8fb00018 	lw	s0,24(sp)
  401d3c:	03e00008 	jr	ra
  401d40:	27bd0020 	addiu	sp,sp,32

00401d44 <close_all>:
  401d44:	27bdffe0 	addiu	sp,sp,-32
  401d48:	afbf0018 	sw	ra,24(sp)
  401d4c:	afb10014 	sw	s1,20(sp)
  401d50:	afb00010 	sw	s0,16(sp)
  401d54:	00008021 	move	s0,zero
  401d58:	24110020 	li	s1,32
  401d5c:	0c100738 	jal	401ce0 <close>
  401d60:	02002021 	move	a0,s0
  401d64:	26100001 	addiu	s0,s0,1
  401d68:	1611fffc 	bne	s0,s1,401d5c <close_all+0x18>
  401d6c:	8fbf0018 	lw	ra,24(sp)
  401d70:	8fb10014 	lw	s1,20(sp)
  401d74:	8fb00010 	lw	s0,16(sp)
  401d78:	03e00008 	jr	ra
  401d7c:	27bd0020 	addiu	sp,sp,32

00401d80 <dup>:
  401d80:	27bdffb8 	addiu	sp,sp,-72
  401d84:	afbf0040 	sw	ra,64(sp)
  401d88:	afb7003c 	sw	s7,60(sp)
  401d8c:	afb60038 	sw	s6,56(sp)
  401d90:	afb50034 	sw	s5,52(sp)
  401d94:	afb40030 	sw	s4,48(sp)
  401d98:	afb3002c 	sw	s3,44(sp)
  401d9c:	afb20028 	sw	s2,40(sp)
  401da0:	afb10024 	sw	s1,36(sp)
  401da4:	afb00020 	sw	s0,32(sp)
  401da8:	00a0b821 	move	s7,a1
  401dac:	0c100718 	jal	401c60 <fd_lookup>
  401db0:	27a50018 	addiu	a1,sp,24
  401db4:	04400042 	bltz	v0,401ec0 <dup+0x140>
  401db8:	00409821 	move	s3,v0
  401dbc:	0c100738 	jal	401ce0 <close>
  401dc0:	02e02021 	move	a0,s7
  401dc4:	00178300 	sll	s0,s7,0xc
  401dc8:	3c02cfc0 	lui	v0,0xcfc0
  401dcc:	02028021 	addu	s0,s0,v0
  401dd0:	0c10072a 	jal	401ca8 <fd2data>
  401dd4:	8fa40018 	lw	a0,24(sp)
  401dd8:	0040a021 	move	s4,v0
  401ddc:	0c10072a 	jal	401ca8 <fd2data>
  401de0:	02002021 	move	a0,s0
  401de4:	00409021 	move	s2,v0
  401de8:	0200b021 	move	s6,s0
  401dec:	24020001 	li	v0,1
  401df0:	afa20010 	sw	v0,16(sp)
  401df4:	00002021 	move	a0,zero
  401df8:	8fa50018 	lw	a1,24(sp)
  401dfc:	00003021 	move	a2,zero
  401e00:	0c1005d1 	jal	401744 <syscall_mem_map>
  401e04:	02003821 	move	a3,s0
  401e08:	0440001f 	bltz	v0,401e88 <dup+0x108>
  401e0c:	00409821 	move	s3,v0
  401e10:	00141582 	srl	v0,s4,0x16
  401e14:	00021080 	sll	v0,v0,0x2
  401e18:	3c030040 	lui	v1,0x40
  401e1c:	8c63640c 	lw	v1,25612(v1)
  401e20:	00431021 	addu	v0,v0,v1
  401e24:	8c420000 	lw	v0,0(v0)
  401e28:	10400024 	beqz	v0,401ebc <dup+0x13c>
  401e2c:	00008821 	move	s1,zero
  401e30:	3c150040 	lui	s5,0x40
  401e34:	3c100040 	lui	s0,0x40
  401e38:	02912821 	addu	a1,s4,s1
  401e3c:	00051302 	srl	v0,a1,0xc
  401e40:	00021080 	sll	v0,v0,0x2
  401e44:	8ea36408 	lw	v1,25608(s5)
  401e48:	00431021 	addu	v0,v0,v1
  401e4c:	8c420000 	lw	v0,0(v0)
  401e50:	30420200 	andi	v0,v0,0x200
  401e54:	10400007 	beqz	v0,401e74 <dup+0xf4>
  401e58:	00002021 	move	a0,zero
  401e5c:	afa20010 	sw	v0,16(sp)
  401e60:	00003021 	move	a2,zero
  401e64:	0c1005d1 	jal	401744 <syscall_mem_map>
  401e68:	02513821 	addu	a3,s2,s1
  401e6c:	04400006 	bltz	v0,401e88 <dup+0x108>
  401e70:	00409821 	move	s3,v0
  401e74:	26311000 	addiu	s1,s1,4096
  401e78:	12300010 	beq	s1,s0,401ebc <dup+0x13c>
  401e7c:	02912821 	addu	a1,s4,s1
  401e80:	1000ffef 	b	401e40 <dup+0xc0>
  401e84:	00051302 	srl	v0,a1,0xc
  401e88:	00002021 	move	a0,zero
  401e8c:	0c1005e1 	jal	401784 <syscall_mem_unmap>
  401e90:	02c02821 	move	a1,s6
  401e94:	00008021 	move	s0,zero
  401e98:	3c110040 	lui	s1,0x40
  401e9c:	00002021 	move	a0,zero
  401ea0:	0c1005e1 	jal	401784 <syscall_mem_unmap>
  401ea4:	02502821 	addu	a1,s2,s0
  401ea8:	26101000 	addiu	s0,s0,4096
  401eac:	12110004 	beq	s0,s1,401ec0 <dup+0x140>
  401eb0:	00002021 	move	a0,zero
  401eb4:	1000fffa 	b	401ea0 <dup+0x120>
  401eb8:	00000000 	nop
  401ebc:	02e09821 	move	s3,s7
  401ec0:	02601021 	move	v0,s3
  401ec4:	8fbf0040 	lw	ra,64(sp)
  401ec8:	8fb7003c 	lw	s7,60(sp)
  401ecc:	8fb60038 	lw	s6,56(sp)
  401ed0:	8fb50034 	lw	s5,52(sp)
  401ed4:	8fb40030 	lw	s4,48(sp)
  401ed8:	8fb3002c 	lw	s3,44(sp)
  401edc:	8fb20028 	lw	s2,40(sp)
  401ee0:	8fb10024 	lw	s1,36(sp)
  401ee4:	8fb00020 	lw	s0,32(sp)
  401ee8:	03e00008 	jr	ra
  401eec:	27bd0048 	addiu	sp,sp,72

00401ef0 <read>:
  401ef0:	27bdffd8 	addiu	sp,sp,-40
  401ef4:	afbf0024 	sw	ra,36(sp)
  401ef8:	afb20020 	sw	s2,32(sp)
  401efc:	afb1001c 	sw	s1,28(sp)
  401f00:	afb00018 	sw	s0,24(sp)
  401f04:	00809021 	move	s2,a0
  401f08:	00a08021 	move	s0,a1
  401f0c:	00c08821 	move	s1,a2
  401f10:	0c100718 	jal	401c60 <fd_lookup>
  401f14:	27a50014 	addiu	a1,sp,20
  401f18:	04400022 	bltz	v0,401fa4 <read+0xb4>
  401f1c:	00402021 	move	a0,v0
  401f20:	8fa20014 	lw	v0,20(sp)
  401f24:	8c440000 	lw	a0,0(v0)
  401f28:	0c1006d0 	jal	401b40 <dev_lookup>
  401f2c:	27a50010 	addiu	a1,sp,16
  401f30:	0440001c 	bltz	v0,401fa4 <read+0xb4>
  401f34:	00402021 	move	a0,v0
  401f38:	8fa70014 	lw	a3,20(sp)
  401f3c:	8ce20008 	lw	v0,8(a3)
  401f40:	30420003 	andi	v0,v0,0x3
  401f44:	24030001 	li	v1,1
  401f48:	1443000a 	bne	v0,v1,401f74 <read+0x84>
  401f4c:	8fa20010 	lw	v0,16(sp)
  401f50:	3c020041 	lui	v0,0x41
  401f54:	8c42b060 	lw	v0,-20384(v0)
  401f58:	3c040041 	lui	a0,0x41
  401f5c:	2484a8a4 	addiu	a0,a0,-22364
  401f60:	8c4500a4 	lw	a1,164(v0)
  401f64:	0c10021d 	jal	400874 <writef>
  401f68:	02403021 	move	a2,s2
  401f6c:	1000000d 	b	401fa4 <read+0xb4>
  401f70:	2404fffd 	li	a0,-3
  401f74:	8c420008 	lw	v0,8(v0)
  401f78:	00e02021 	move	a0,a3
  401f7c:	02002821 	move	a1,s0
  401f80:	02203021 	move	a2,s1
  401f84:	0040f809 	jalr	v0
  401f88:	8ce70004 	lw	a3,4(a3)
  401f8c:	04400005 	bltz	v0,401fa4 <read+0xb4>
  401f90:	00402021 	move	a0,v0
  401f94:	8fa30014 	lw	v1,20(sp)
  401f98:	8c620004 	lw	v0,4(v1)
  401f9c:	00821021 	addu	v0,a0,v0
  401fa0:	ac620004 	sw	v0,4(v1)
  401fa4:	00801021 	move	v0,a0
  401fa8:	8fbf0024 	lw	ra,36(sp)
  401fac:	8fb20020 	lw	s2,32(sp)
  401fb0:	8fb1001c 	lw	s1,28(sp)
  401fb4:	8fb00018 	lw	s0,24(sp)
  401fb8:	03e00008 	jr	ra
  401fbc:	27bd0028 	addiu	sp,sp,40

00401fc0 <readn>:
  401fc0:	27bdffd8 	addiu	sp,sp,-40
  401fc4:	afbf0020 	sw	ra,32(sp)
  401fc8:	afb3001c 	sw	s3,28(sp)
  401fcc:	afb20018 	sw	s2,24(sp)
  401fd0:	afb10014 	sw	s1,20(sp)
  401fd4:	afb00010 	sw	s0,16(sp)
  401fd8:	00809821 	move	s3,a0
  401fdc:	00a09021 	move	s2,a1
  401fe0:	14c00003 	bnez	a2,401ff0 <readn+0x30>
  401fe4:	00c08821 	move	s1,a2
  401fe8:	10000010 	b	40202c <readn+0x6c>
  401fec:	00001021 	move	v0,zero
  401ff0:	00008021 	move	s0,zero
  401ff4:	00001821 	move	v1,zero
  401ff8:	02602021 	move	a0,s3
  401ffc:	02432821 	addu	a1,s2,v1
  402000:	0c1007bc 	jal	401ef0 <read>
  402004:	02233023 	subu	a2,s1,v1
  402008:	04400009 	bltz	v0,402030 <readn+0x70>
  40200c:	8fbf0020 	lw	ra,32(sp)
  402010:	10400005 	beqz	v0,402028 <readn+0x68>
  402014:	00000000 	nop
  402018:	02028021 	addu	s0,s0,v0
  40201c:	0211102b 	sltu	v0,s0,s1
  402020:	1440fff5 	bnez	v0,401ff8 <readn+0x38>
  402024:	02001821 	move	v1,s0
  402028:	02001021 	move	v0,s0
  40202c:	8fbf0020 	lw	ra,32(sp)
  402030:	8fb3001c 	lw	s3,28(sp)
  402034:	8fb20018 	lw	s2,24(sp)
  402038:	8fb10014 	lw	s1,20(sp)
  40203c:	8fb00010 	lw	s0,16(sp)
  402040:	03e00008 	jr	ra
  402044:	27bd0028 	addiu	sp,sp,40

00402048 <write>:
  402048:	27bdffd8 	addiu	sp,sp,-40
  40204c:	afbf0024 	sw	ra,36(sp)
  402050:	afb20020 	sw	s2,32(sp)
  402054:	afb1001c 	sw	s1,28(sp)
  402058:	afb00018 	sw	s0,24(sp)
  40205c:	00809021 	move	s2,a0
  402060:	00a08021 	move	s0,a1
  402064:	00c08821 	move	s1,a2
  402068:	0c100718 	jal	401c60 <fd_lookup>
  40206c:	27a50014 	addiu	a1,sp,20
  402070:	04400021 	bltz	v0,4020f8 <write+0xb0>
  402074:	00402021 	move	a0,v0
  402078:	8fa20014 	lw	v0,20(sp)
  40207c:	8c440000 	lw	a0,0(v0)
  402080:	0c1006d0 	jal	401b40 <dev_lookup>
  402084:	27a50010 	addiu	a1,sp,16
  402088:	0440001b 	bltz	v0,4020f8 <write+0xb0>
  40208c:	00402021 	move	a0,v0
  402090:	8fa30014 	lw	v1,20(sp)
  402094:	8c620008 	lw	v0,8(v1)
  402098:	30420003 	andi	v0,v0,0x3
  40209c:	1440000a 	bnez	v0,4020c8 <write+0x80>
  4020a0:	8fa20010 	lw	v0,16(sp)
  4020a4:	3c020041 	lui	v0,0x41
  4020a8:	8c42b060 	lw	v0,-20384(v0)
  4020ac:	3c040041 	lui	a0,0x41
  4020b0:	2484a8c0 	addiu	a0,a0,-22336
  4020b4:	8c4500a4 	lw	a1,164(v0)
  4020b8:	0c10021d 	jal	400874 <writef>
  4020bc:	02403021 	move	a2,s2
  4020c0:	1000000d 	b	4020f8 <write+0xb0>
  4020c4:	2404fffd 	li	a0,-3
  4020c8:	8c42000c 	lw	v0,12(v0)
  4020cc:	00602021 	move	a0,v1
  4020d0:	02002821 	move	a1,s0
  4020d4:	02203021 	move	a2,s1
  4020d8:	0040f809 	jalr	v0
  4020dc:	8c670004 	lw	a3,4(v1)
  4020e0:	18400005 	blez	v0,4020f8 <write+0xb0>
  4020e4:	00402021 	move	a0,v0
  4020e8:	8fa30014 	lw	v1,20(sp)
  4020ec:	8c620004 	lw	v0,4(v1)
  4020f0:	00821021 	addu	v0,a0,v0
  4020f4:	ac620004 	sw	v0,4(v1)
  4020f8:	00801021 	move	v0,a0
  4020fc:	8fbf0024 	lw	ra,36(sp)
  402100:	8fb20020 	lw	s2,32(sp)
  402104:	8fb1001c 	lw	s1,28(sp)
  402108:	8fb00018 	lw	s0,24(sp)
  40210c:	03e00008 	jr	ra
  402110:	27bd0028 	addiu	sp,sp,40

00402114 <seek>:
  402114:	27bdffe0 	addiu	sp,sp,-32
  402118:	afbf001c 	sw	ra,28(sp)
  40211c:	afb00018 	sw	s0,24(sp)
  402120:	00a08021 	move	s0,a1
  402124:	0c100718 	jal	401c60 <fd_lookup>
  402128:	27a50010 	addiu	a1,sp,16
  40212c:	04400005 	bltz	v0,402144 <seek+0x30>
  402130:	8fbf001c 	lw	ra,28(sp)
  402134:	8fa20010 	lw	v0,16(sp)
  402138:	ac500004 	sw	s0,4(v0)
  40213c:	00001021 	move	v0,zero
  402140:	8fbf001c 	lw	ra,28(sp)
  402144:	8fb00018 	lw	s0,24(sp)
  402148:	03e00008 	jr	ra
  40214c:	27bd0020 	addiu	sp,sp,32

00402150 <fstat>:
  402150:	27bdffe0 	addiu	sp,sp,-32
  402154:	afbf001c 	sw	ra,28(sp)
  402158:	afb00018 	sw	s0,24(sp)
  40215c:	00a08021 	move	s0,a1
  402160:	0c100718 	jal	401c60 <fd_lookup>
  402164:	27a50014 	addiu	a1,sp,20
  402168:	04400011 	bltz	v0,4021b0 <fstat+0x60>
  40216c:	8fbf001c 	lw	ra,28(sp)
  402170:	8fa20014 	lw	v0,20(sp)
  402174:	8c440000 	lw	a0,0(v0)
  402178:	0c1006d0 	jal	401b40 <dev_lookup>
  40217c:	27a50010 	addiu	a1,sp,16
  402180:	0440000b 	bltz	v0,4021b0 <fstat+0x60>
  402184:	8fbf001c 	lw	ra,28(sp)
  402188:	a2000000 	sb	zero,0(s0)
  40218c:	ae000080 	sw	zero,128(s0)
  402190:	ae000084 	sw	zero,132(s0)
  402194:	8fa20010 	lw	v0,16(sp)
  402198:	ae020088 	sw	v0,136(s0)
  40219c:	8c420014 	lw	v0,20(v0)
  4021a0:	8fa40014 	lw	a0,20(sp)
  4021a4:	0040f809 	jalr	v0
  4021a8:	02002821 	move	a1,s0
  4021ac:	8fbf001c 	lw	ra,28(sp)
  4021b0:	8fb00018 	lw	s0,24(sp)
  4021b4:	03e00008 	jr	ra
  4021b8:	27bd0020 	addiu	sp,sp,32

004021bc <stat>:
  4021bc:	27bdffe0 	addiu	sp,sp,-32
  4021c0:	afbf0018 	sw	ra,24(sp)
  4021c4:	afb10014 	sw	s1,20(sp)
  4021c8:	afb00010 	sw	s0,16(sp)
  4021cc:	00a08021 	move	s0,a1
  4021d0:	0c1008a4 	jal	402290 <open>
  4021d4:	00002821 	move	a1,zero
  4021d8:	04400008 	bltz	v0,4021fc <stat+0x40>
  4021dc:	00408821 	move	s1,v0
  4021e0:	00402021 	move	a0,v0
  4021e4:	0c100854 	jal	402150 <fstat>
  4021e8:	02002821 	move	a1,s0
  4021ec:	00408021 	move	s0,v0
  4021f0:	0c100738 	jal	401ce0 <close>
  4021f4:	02202021 	move	a0,s1
  4021f8:	02008821 	move	s1,s0
  4021fc:	02201021 	move	v0,s1
  402200:	8fbf0018 	lw	ra,24(sp)
  402204:	8fb10014 	lw	s1,20(sp)
  402208:	8fb00010 	lw	s0,16(sp)
  40220c:	03e00008 	jr	ra
  402210:	27bd0020 	addiu	sp,sp,32
	...

00402220 <pageref>:
  402220:	00041582 	srl	v0,a0,0x16
  402224:	00021080 	sll	v0,v0,0x2
  402228:	3c030040 	lui	v1,0x40
  40222c:	8c63640c 	lw	v1,25612(v1)
  402230:	00431021 	addu	v0,v0,v1
  402234:	8c420000 	lw	v0,0(v0)
  402238:	30420200 	andi	v0,v0,0x200
  40223c:	10400012 	beqz	v0,402288 <pageref+0x68>
  402240:	3c030040 	lui	v1,0x40
  402244:	00041302 	srl	v0,a0,0xc
  402248:	00021080 	sll	v0,v0,0x2
  40224c:	8c636408 	lw	v1,25608(v1)
  402250:	00431021 	addu	v0,v0,v1
  402254:	8c440000 	lw	a0,0(v0)
  402258:	30820200 	andi	v0,a0,0x200
  40225c:	1040000a 	beqz	v0,402288 <pageref+0x68>
  402260:	00000000 	nop
  402264:	00041302 	srl	v0,a0,0xc
  402268:	00021880 	sll	v1,v0,0x2
  40226c:	00021100 	sll	v0,v0,0x4
  402270:	00431023 	subu	v0,v0,v1
  402274:	3c030040 	lui	v1,0x40
  402278:	8c636404 	lw	v1,25604(v1)
  40227c:	00431021 	addu	v0,v0,v1
  402280:	03e00008 	jr	ra
  402284:	94420008 	lhu	v0,8(v0)
  402288:	03e00008 	jr	ra
  40228c:	00001021 	move	v0,zero

00402290 <open>:
  402290:	27bdffb8 	addiu	sp,sp,-72
  402294:	afbf0044 	sw	ra,68(sp)
  402298:	afbe0040 	sw	s8,64(sp)
  40229c:	afb7003c 	sw	s7,60(sp)
  4022a0:	afb60038 	sw	s6,56(sp)
  4022a4:	afb50034 	sw	s5,52(sp)
  4022a8:	afb40030 	sw	s4,48(sp)
  4022ac:	afb3002c 	sw	s3,44(sp)
  4022b0:	afb20028 	sw	s2,40(sp)
  4022b4:	afb10024 	sw	s1,36(sp)
  4022b8:	afb00020 	sw	s0,32(sp)
  4022bc:	00809021 	move	s2,a0
  4022c0:	00a08021 	move	s0,a1
  4022c4:	0c1006f3 	jal	401bcc <fd_alloc>
  4022c8:	27a40018 	addiu	a0,sp,24
  4022cc:	04410006 	bgez	v0,4022e8 <open+0x58>
  4022d0:	00408821 	move	s1,v0
  4022d4:	3c040041 	lui	a0,0x41
  4022d8:	0c10021d 	jal	400874 <writef>
  4022dc:	2484a8e8 	addiu	a0,a0,-22296
  4022e0:	1000004c 	b	402414 <open+0x184>
  4022e4:	02201021 	move	v0,s1
  4022e8:	3c040041 	lui	a0,0x41
  4022ec:	2484a900 	addiu	a0,a0,-22272
  4022f0:	0c10021d 	jal	400874 <writef>
  4022f4:	8fa50018 	lw	a1,24(sp)
  4022f8:	02402021 	move	a0,s2
  4022fc:	02002821 	move	a1,s0
  402300:	0c100a80 	jal	402a00 <fsipc_open>
  402304:	8fa60018 	lw	a2,24(sp)
  402308:	04410007 	bgez	v0,402328 <open+0x98>
  40230c:	00408821 	move	s1,v0
  402310:	3c040041 	lui	a0,0x41
  402314:	2484a910 	addiu	a0,a0,-22256
  402318:	0c10021d 	jal	400874 <writef>
  40231c:	02402821 	move	a1,s2
  402320:	1000003c 	b	402414 <open+0x184>
  402324:	02201021 	move	v0,s1
  402328:	0c10072a 	jal	401ca8 <fd2data>
  40232c:	8fa40018 	lw	a0,24(sp)
  402330:	0040a821 	move	s5,v0
  402334:	8fa50018 	lw	a1,24(sp)
  402338:	8cb30090 	lw	s3,144(a1)
  40233c:	8cb4000c 	lw	s4,12(a1)
  402340:	afa20010 	sw	v0,16(sp)
  402344:	3c040041 	lui	a0,0x41
  402348:	2484a928 	addiu	a0,a0,-22232
  40234c:	02603021 	move	a2,s3
  402350:	0c10021d 	jal	400874 <writef>
  402354:	02803821 	move	a3,s4
  402358:	1660000a 	bnez	s3,402384 <open+0xf4>
  40235c:	00009021 	move	s2,zero
  402360:	0c100734 	jal	401cd0 <fd2num>
  402364:	8fa40018 	lw	a0,24(sp)
  402368:	10000029 	b	402410 <open+0x180>
  40236c:	00408821 	move	s1,v0
  402370:	3c040041 	lui	a0,0x41
  402374:	0c10021d 	jal	400874 <writef>
  402378:	2484a958 	addiu	a0,a0,-22184
  40237c:	10000025 	b	402414 <open+0x184>
  402380:	02201021 	move	v0,s1
  402384:	3c1e0040 	lui	s8,0x40
  402388:	3c170040 	lui	s7,0x40
  40238c:	3c160041 	lui	s6,0x41
  402390:	02558021 	addu	s0,s2,s5
  402394:	02802021 	move	a0,s4
  402398:	02402821 	move	a1,s2
  40239c:	0c100a9f 	jal	402a7c <fsipc_map>
  4023a0:	02003021 	move	a2,s0
  4023a4:	0440fff2 	bltz	v0,402370 <open+0xe0>
  4023a8:	00408821 	move	s1,v0
  4023ac:	00101582 	srl	v0,s0,0x16
  4023b0:	00021080 	sll	v0,v0,0x2
  4023b4:	8fc3640c 	lw	v1,25612(s8)
  4023b8:	00431021 	addu	v0,v0,v1
  4023bc:	8c470000 	lw	a3,0(v0)
  4023c0:	00101302 	srl	v0,s0,0xc
  4023c4:	00021080 	sll	v0,v0,0x2
  4023c8:	8ee36408 	lw	v1,25608(s7)
  4023cc:	00431021 	addu	v0,v0,v1
  4023d0:	8c420000 	lw	v0,0(v0)
  4023d4:	afb00010 	sw	s0,16(sp)
  4023d8:	30420200 	andi	v0,v0,0x200
  4023dc:	afa20014 	sw	v0,20(sp)
  4023e0:	26c4a970 	addiu	a0,s6,-22160
  4023e4:	02402821 	move	a1,s2
  4023e8:	02003021 	move	a2,s0
  4023ec:	0c10021d 	jal	400874 <writef>
  4023f0:	30e70200 	andi	a3,a3,0x200
  4023f4:	26521000 	addiu	s2,s2,4096
  4023f8:	0253102b 	sltu	v0,s2,s3
  4023fc:	1440ffe5 	bnez	v0,402394 <open+0x104>
  402400:	02558021 	addu	s0,s2,s5
  402404:	0c100734 	jal	401cd0 <fd2num>
  402408:	8fa40018 	lw	a0,24(sp)
  40240c:	00408821 	move	s1,v0
  402410:	02201021 	move	v0,s1
  402414:	8fbf0044 	lw	ra,68(sp)
  402418:	8fbe0040 	lw	s8,64(sp)
  40241c:	8fb7003c 	lw	s7,60(sp)
  402420:	8fb60038 	lw	s6,56(sp)
  402424:	8fb50034 	lw	s5,52(sp)
  402428:	8fb40030 	lw	s4,48(sp)
  40242c:	8fb3002c 	lw	s3,44(sp)
  402430:	8fb20028 	lw	s2,40(sp)
  402434:	8fb10024 	lw	s1,36(sp)
  402438:	8fb00020 	lw	s0,32(sp)
  40243c:	03e00008 	jr	ra
  402440:	27bd0048 	addiu	sp,sp,72

00402444 <file_close>:
  402444:	27bdffd8 	addiu	sp,sp,-40
  402448:	afbf0024 	sw	ra,36(sp)
  40244c:	afb40020 	sw	s4,32(sp)
  402450:	afb3001c 	sw	s3,28(sp)
  402454:	afb20018 	sw	s2,24(sp)
  402458:	afb10014 	sw	s1,20(sp)
  40245c:	afb00010 	sw	s0,16(sp)
  402460:	0080a021 	move	s4,a0
  402464:	8c91000c 	lw	s1,12(a0)
  402468:	0c10072a 	jal	401ca8 <fd2data>
  40246c:	8c920090 	lw	s2,144(a0)
  402470:	12400009 	beqz	s2,402498 <file_close+0x54>
  402474:	00409821 	move	s3,v0
  402478:	00008021 	move	s0,zero
  40247c:	02202021 	move	a0,s1
  402480:	0c100ac8 	jal	402b20 <fsipc_dirty>
  402484:	02002821 	move	a1,s0
  402488:	26101000 	addiu	s0,s0,4096
  40248c:	0212102b 	sltu	v0,s0,s2
  402490:	1440fffb 	bnez	v0,402480 <file_close+0x3c>
  402494:	02202021 	move	a0,s1
  402498:	0c100abc 	jal	402af0 <fsipc_close>
  40249c:	02202021 	move	a0,s1
  4024a0:	04410006 	bgez	v0,4024bc <file_close+0x78>
  4024a4:	00408821 	move	s1,v0
  4024a8:	3c040041 	lui	a0,0x41
  4024ac:	0c10021d 	jal	400874 <writef>
  4024b0:	2484a9ac 	addiu	a0,a0,-22100
  4024b4:	10000017 	b	402514 <file_close+0xd0>
  4024b8:	02201021 	move	v0,s1
  4024bc:	16400008 	bnez	s2,4024e0 <file_close+0x9c>
  4024c0:	00008021 	move	s0,zero
  4024c4:	10000012 	b	402510 <file_close+0xcc>
  4024c8:	00008821 	move	s1,zero
  4024cc:	3c040041 	lui	a0,0x41
  4024d0:	0c10021d 	jal	400874 <writef>
  4024d4:	2484a9c4 	addiu	a0,a0,-22076
  4024d8:	1000000e 	b	402514 <file_close+0xd0>
  4024dc:	02201021 	move	v0,s1
  4024e0:	00002021 	move	a0,zero
  4024e4:	0c1005e1 	jal	401784 <syscall_mem_unmap>
  4024e8:	02132821 	addu	a1,s0,s3
  4024ec:	0440fff7 	bltz	v0,4024cc <file_close+0x88>
  4024f0:	00408821 	move	s1,v0
  4024f4:	26101000 	addiu	s0,s0,4096
  4024f8:	0212102b 	sltu	v0,s0,s2
  4024fc:	1440fff9 	bnez	v0,4024e4 <file_close+0xa0>
  402500:	00002021 	move	a0,zero
  402504:	0c100710 	jal	401c40 <fd_close>
  402508:	02802021 	move	a0,s4
  40250c:	00008821 	move	s1,zero
  402510:	02201021 	move	v0,s1
  402514:	8fbf0024 	lw	ra,36(sp)
  402518:	8fb40020 	lw	s4,32(sp)
  40251c:	8fb3001c 	lw	s3,28(sp)
  402520:	8fb20018 	lw	s2,24(sp)
  402524:	8fb10014 	lw	s1,20(sp)
  402528:	8fb00010 	lw	s0,16(sp)
  40252c:	03e00008 	jr	ra
  402530:	27bd0028 	addiu	sp,sp,40

00402534 <file_read>:
  402534:	27bdffe0 	addiu	sp,sp,-32
  402538:	afbf001c 	sw	ra,28(sp)
  40253c:	afb20018 	sw	s2,24(sp)
  402540:	afb10014 	sw	s1,20(sp)
  402544:	afb00010 	sw	s0,16(sp)
  402548:	00a09021 	move	s2,a1
  40254c:	00c08021 	move	s0,a2
  402550:	8c830090 	lw	v1,144(a0)
  402554:	0067102b 	sltu	v0,v1,a3
  402558:	10400003 	beqz	v0,402568 <file_read+0x34>
  40255c:	00e08821 	move	s1,a3
  402560:	1000000b 	b	402590 <file_read+0x5c>
  402564:	00001021 	move	v0,zero
  402568:	00e61021 	addu	v0,a3,a2
  40256c:	0062102b 	sltu	v0,v1,v0
  402570:	00671823 	subu	v1,v1,a3
  402574:	0c10072a 	jal	401ca8 <fd2data>
  402578:	0062800b 	movn	s0,v1,v0
  40257c:	00512021 	addu	a0,v0,s1
  402580:	02402821 	move	a1,s2
  402584:	0c10047c 	jal	4011f0 <user_bcopy>
  402588:	02003021 	move	a2,s0
  40258c:	02001021 	move	v0,s0
  402590:	8fbf001c 	lw	ra,28(sp)
  402594:	8fb20018 	lw	s2,24(sp)
  402598:	8fb10014 	lw	s1,20(sp)
  40259c:	8fb00010 	lw	s0,16(sp)
  4025a0:	03e00008 	jr	ra
  4025a4:	27bd0020 	addiu	sp,sp,32

004025a8 <read_map>:
  4025a8:	27bdffc0 	addiu	sp,sp,-64
  4025ac:	afbf003c 	sw	ra,60(sp)
  4025b0:	afb60038 	sw	s6,56(sp)
  4025b4:	afb50034 	sw	s5,52(sp)
  4025b8:	afb40030 	sw	s4,48(sp)
  4025bc:	afb3002c 	sw	s3,44(sp)
  4025c0:	afb20028 	sw	s2,40(sp)
  4025c4:	afb10024 	sw	s1,36(sp)
  4025c8:	afb00020 	sw	s0,32(sp)
  4025cc:	00a09021 	move	s2,a1
  4025d0:	00c09821 	move	s3,a2
  4025d4:	0c100718 	jal	401c60 <fd_lookup>
  4025d8:	27a50018 	addiu	a1,sp,24
  4025dc:	04400033 	bltz	v0,4026ac <read_map+0x104>
  4025e0:	8fbf003c 	lw	ra,60(sp)
  4025e4:	8fa40018 	lw	a0,24(sp)
  4025e8:	8c820000 	lw	v0,0(a0)
  4025ec:	3c030041 	lui	v1,0x41
  4025f0:	8c63b03c 	lw	v1,-20420(v1)
  4025f4:	1443002d 	bne	v0,v1,4026ac <read_map+0x104>
  4025f8:	2402fffd 	li	v0,-3
  4025fc:	0c10072a 	jal	401ca8 <fd2data>
  402600:	00000000 	nop
  402604:	0052a021 	addu	s4,v0,s2
  402608:	3c02003f 	lui	v0,0x3f
  40260c:	3442ffff 	ori	v0,v0,0xffff
  402610:	0052102b 	sltu	v0,v0,s2
  402614:	14400024 	bnez	v0,4026a8 <read_map+0x100>
  402618:	2402fff9 	li	v0,-7
  40261c:	00148582 	srl	s0,s4,0x16
  402620:	00108080 	sll	s0,s0,0x2
  402624:	3c110040 	lui	s1,0x40
  402628:	8e22640c 	lw	v0,25612(s1)
  40262c:	02021021 	addu	v0,s0,v0
  402630:	8c470000 	lw	a3,0(v0)
  402634:	00141302 	srl	v0,s4,0xc
  402638:	0002a880 	sll	s5,v0,0x2
  40263c:	3c160040 	lui	s6,0x40
  402640:	8ec26408 	lw	v0,25608(s6)
  402644:	02a21021 	addu	v0,s5,v0
  402648:	8c420000 	lw	v0,0(v0)
  40264c:	30420200 	andi	v0,v0,0x200
  402650:	afa20010 	sw	v0,16(sp)
  402654:	3c040041 	lui	a0,0x41
  402658:	2484a9e0 	addiu	a0,a0,-22048
  40265c:	02402821 	move	a1,s2
  402660:	02803021 	move	a2,s4
  402664:	0c10021d 	jal	400874 <writef>
  402668:	30e70200 	andi	a3,a3,0x200
  40266c:	8e22640c 	lw	v0,25612(s1)
  402670:	02028021 	addu	s0,s0,v0
  402674:	8e020000 	lw	v0,0(s0)
  402678:	30420200 	andi	v0,v0,0x200
  40267c:	1040000a 	beqz	v0,4026a8 <read_map+0x100>
  402680:	2402fff9 	li	v0,-7
  402684:	8ec26408 	lw	v0,25608(s6)
  402688:	02a21021 	addu	v0,s5,v0
  40268c:	8c420000 	lw	v0,0(v0)
  402690:	30420200 	andi	v0,v0,0x200
  402694:	10400003 	beqz	v0,4026a4 <read_map+0xfc>
  402698:	00001021 	move	v0,zero
  40269c:	10000002 	b	4026a8 <read_map+0x100>
  4026a0:	ae740000 	sw	s4,0(s3)
  4026a4:	2402fff9 	li	v0,-7
  4026a8:	8fbf003c 	lw	ra,60(sp)
  4026ac:	8fb60038 	lw	s6,56(sp)
  4026b0:	8fb50034 	lw	s5,52(sp)
  4026b4:	8fb40030 	lw	s4,48(sp)
  4026b8:	8fb3002c 	lw	s3,44(sp)
  4026bc:	8fb20028 	lw	s2,40(sp)
  4026c0:	8fb10024 	lw	s1,36(sp)
  4026c4:	8fb00020 	lw	s0,32(sp)
  4026c8:	03e00008 	jr	ra
  4026cc:	27bd0040 	addiu	sp,sp,64

004026d0 <file_write>:
  4026d0:	27bdffd8 	addiu	sp,sp,-40
  4026d4:	afbf0024 	sw	ra,36(sp)
  4026d8:	afb40020 	sw	s4,32(sp)
  4026dc:	afb3001c 	sw	s3,28(sp)
  4026e0:	afb20018 	sw	s2,24(sp)
  4026e4:	afb10014 	sw	s1,20(sp)
  4026e8:	afb00010 	sw	s0,16(sp)
  4026ec:	00808821 	move	s1,a0
  4026f0:	00a0a021 	move	s4,a1
  4026f4:	00c09021 	move	s2,a2
  4026f8:	00e68021 	addu	s0,a3,a2
  4026fc:	3c020040 	lui	v0,0x40
  402700:	0050102b 	sltu	v0,v0,s0
  402704:	10400003 	beqz	v0,402714 <file_write+0x44>
  402708:	00e09821 	move	s3,a3
  40270c:	10000013 	b	40275c <file_write+0x8c>
  402710:	2402fff9 	li	v0,-7
  402714:	8c820090 	lw	v0,144(a0)
  402718:	0050102b 	sltu	v0,v0,s0
  40271c:	10400008 	beqz	v0,402740 <file_write+0x70>
  402720:	00000000 	nop
  402724:	0c100734 	jal	401cd0 <fd2num>
  402728:	00000000 	nop
  40272c:	00402021 	move	a0,v0
  402730:	0c1009f4 	jal	4027d0 <ftruncate>
  402734:	02002821 	move	a1,s0
  402738:	04400009 	bltz	v0,402760 <file_write+0x90>
  40273c:	8fbf0024 	lw	ra,36(sp)
  402740:	0c10072a 	jal	401ca8 <fd2data>
  402744:	02202021 	move	a0,s1
  402748:	02802021 	move	a0,s4
  40274c:	00532821 	addu	a1,v0,s3
  402750:	0c10047c 	jal	4011f0 <user_bcopy>
  402754:	02403021 	move	a2,s2
  402758:	02401021 	move	v0,s2
  40275c:	8fbf0024 	lw	ra,36(sp)
  402760:	8fb40020 	lw	s4,32(sp)
  402764:	8fb3001c 	lw	s3,28(sp)
  402768:	8fb20018 	lw	s2,24(sp)
  40276c:	8fb10014 	lw	s1,20(sp)
  402770:	8fb00010 	lw	s0,16(sp)
  402774:	03e00008 	jr	ra
  402778:	27bd0028 	addiu	sp,sp,40

0040277c <file_stat>:
  40277c:	27bdffe0 	addiu	sp,sp,-32
  402780:	afbf0018 	sw	ra,24(sp)
  402784:	afb10014 	sw	s1,20(sp)
  402788:	afb00010 	sw	s0,16(sp)
  40278c:	00808021 	move	s0,a0
  402790:	00a08821 	move	s1,a1
  402794:	00a02021 	move	a0,a1
  402798:	0c10068d 	jal	401a34 <strcpy>
  40279c:	26050010 	addiu	a1,s0,16
  4027a0:	8e020090 	lw	v0,144(s0)
  4027a4:	ae220080 	sw	v0,128(s1)
  4027a8:	8e020094 	lw	v0,148(s0)
  4027ac:	38420001 	xori	v0,v0,0x1
  4027b0:	2c420001 	sltiu	v0,v0,1
  4027b4:	ae220084 	sw	v0,132(s1)
  4027b8:	00001021 	move	v0,zero
  4027bc:	8fbf0018 	lw	ra,24(sp)
  4027c0:	8fb10014 	lw	s1,20(sp)
  4027c4:	8fb00010 	lw	s0,16(sp)
  4027c8:	03e00008 	jr	ra
  4027cc:	27bd0020 	addiu	sp,sp,32

004027d0 <ftruncate>:
  4027d0:	27bdffb8 	addiu	sp,sp,-72
  4027d4:	afbf0044 	sw	ra,68(sp)
  4027d8:	afbe0040 	sw	s8,64(sp)
  4027dc:	afb7003c 	sw	s7,60(sp)
  4027e0:	afb60038 	sw	s6,56(sp)
  4027e4:	afb50034 	sw	s5,52(sp)
  4027e8:	afb40030 	sw	s4,48(sp)
  4027ec:	afb3002c 	sw	s3,44(sp)
  4027f0:	afb20028 	sw	s2,40(sp)
  4027f4:	afb10024 	sw	s1,36(sp)
  4027f8:	afb00020 	sw	s0,32(sp)
  4027fc:	3c020040 	lui	v0,0x40
  402800:	0045102b 	sltu	v0,v0,a1
  402804:	10400003 	beqz	v0,402814 <ftruncate+0x44>
  402808:	00a08821 	move	s1,a1
  40280c:	10000047 	b	40292c <ftruncate+0x15c>
  402810:	2410fff9 	li	s0,-7
  402814:	0c100718 	jal	401c60 <fd_lookup>
  402818:	27a50018 	addiu	a1,sp,24
  40281c:	04400043 	bltz	v0,40292c <ftruncate+0x15c>
  402820:	00408021 	move	s0,v0
  402824:	8fa50018 	lw	a1,24(sp)
  402828:	8ca20000 	lw	v0,0(a1)
  40282c:	3c030041 	lui	v1,0x41
  402830:	8c63b03c 	lw	v1,-20420(v1)
  402834:	10430008 	beq	v0,v1,402858 <ftruncate+0x88>
  402838:	2410fffd 	li	s0,-3
  40283c:	1000003c 	b	402930 <ftruncate+0x160>
  402840:	02001021 	move	v0,s0
  402844:	02602021 	move	a0,s3
  402848:	0c100aae 	jal	402ab8 <fsipc_set_size>
  40284c:	02e02821 	move	a1,s7
  402850:	10000037 	b	402930 <ftruncate+0x160>
  402854:	02001021 	move	v0,s0
  402858:	8cb3000c 	lw	s3,12(a1)
  40285c:	8cb70090 	lw	s7,144(a1)
  402860:	02602021 	move	a0,s3
  402864:	0c100aae 	jal	402ab8 <fsipc_set_size>
  402868:	02202821 	move	a1,s1
  40286c:	0440002f 	bltz	v0,40292c <ftruncate+0x15c>
  402870:	00408021 	move	s0,v0
  402874:	0c10072a 	jal	401ca8 <fd2data>
  402878:	8fa40018 	lw	a0,24(sp)
  40287c:	0040f021 	move	s8,v0
  402880:	26f60fff 	addiu	s6,s7,4095
  402884:	2402f000 	li	v0,-4096
  402888:	02c29024 	and	s2,s6,v0
  40288c:	26350fff 	addiu	s5,s1,4095
  402890:	02a2a024 	and	s4,s5,v0
  402894:	0254102b 	sltu	v0,s2,s4
  402898:	1040000d 	beqz	v0,4028d0 <ftruncate+0x100>
  40289c:	2402f000 	li	v0,-4096
  4028a0:	025e8821 	addu	s1,s2,s8
  4028a4:	02602021 	move	a0,s3
  4028a8:	02402821 	move	a1,s2
  4028ac:	0c100a9f 	jal	402a7c <fsipc_map>
  4028b0:	02203021 	move	a2,s1
  4028b4:	0440ffe3 	bltz	v0,402844 <ftruncate+0x74>
  4028b8:	00408021 	move	s0,v0
  4028bc:	26521000 	addiu	s2,s2,4096
  4028c0:	0254102b 	sltu	v0,s2,s4
  4028c4:	1440fff7 	bnez	v0,4028a4 <ftruncate+0xd4>
  4028c8:	26311000 	addiu	s1,s1,4096
  4028cc:	2402f000 	li	v0,-4096
  4028d0:	02a28024 	and	s0,s5,v0
  4028d4:	02c29024 	and	s2,s6,v0
  4028d8:	0212102b 	sltu	v0,s0,s2
  4028dc:	10400012 	beqz	v0,402928 <ftruncate+0x158>
  4028e0:	03d08821 	addu	s1,s8,s0
  4028e4:	00002021 	move	a0,zero
  4028e8:	0c1005e1 	jal	401784 <syscall_mem_unmap>
  4028ec:	02202821 	move	a1,s1
  4028f0:	0441000a 	bgez	v0,40291c <ftruncate+0x14c>
  4028f4:	26101000 	addiu	s0,s0,4096
  4028f8:	2610f000 	addiu	s0,s0,-4096
  4028fc:	afa20010 	sw	v0,16(sp)
  402900:	3c040041 	lui	a0,0x41
  402904:	2484aa30 	addiu	a0,a0,-21968
  402908:	240500fc 	li	a1,252
  40290c:	3c060041 	lui	a2,0x41
  402910:	24c6aa38 	addiu	a2,a2,-21960
  402914:	0c10022c 	jal	4008b0 <_user_panic>
  402918:	02203821 	move	a3,s1
  40291c:	0212102b 	sltu	v0,s0,s2
  402920:	1440fff0 	bnez	v0,4028e4 <ftruncate+0x114>
  402924:	26311000 	addiu	s1,s1,4096
  402928:	00008021 	move	s0,zero
  40292c:	02001021 	move	v0,s0
  402930:	8fbf0044 	lw	ra,68(sp)
  402934:	8fbe0040 	lw	s8,64(sp)
  402938:	8fb7003c 	lw	s7,60(sp)
  40293c:	8fb60038 	lw	s6,56(sp)
  402940:	8fb50034 	lw	s5,52(sp)
  402944:	8fb40030 	lw	s4,48(sp)
  402948:	8fb3002c 	lw	s3,44(sp)
  40294c:	8fb20028 	lw	s2,40(sp)
  402950:	8fb10024 	lw	s1,36(sp)
  402954:	8fb00020 	lw	s0,32(sp)
  402958:	03e00008 	jr	ra
  40295c:	27bd0048 	addiu	sp,sp,72

00402960 <remove>:
  402960:	27bdffe8 	addiu	sp,sp,-24
  402964:	afbf0010 	sw	ra,16(sp)
  402968:	0c100ad6 	jal	402b58 <fsipc_remove>
  40296c:	00000000 	nop
  402970:	8fbf0010 	lw	ra,16(sp)
  402974:	03e00008 	jr	ra
  402978:	27bd0018 	addiu	sp,sp,24

0040297c <sync>:
  40297c:	27bdffe8 	addiu	sp,sp,-24
  402980:	afbf0010 	sw	ra,16(sp)
  402984:	0c100aee 	jal	402bb8 <fsipc_sync>
  402988:	00000000 	nop
  40298c:	8fbf0010 	lw	ra,16(sp)
  402990:	03e00008 	jr	ra
  402994:	27bd0018 	addiu	sp,sp,24
	...

004029a0 <fsipc>:
  4029a0:	27bdffd8 	addiu	sp,sp,-40
  4029a4:	afbf0020 	sw	ra,32(sp)
  4029a8:	afb1001c 	sw	s1,28(sp)
  4029ac:	afb00018 	sw	s0,24(sp)
  4029b0:	00801821 	move	v1,a0
  4029b4:	00a04021 	move	t0,a1
  4029b8:	00c08021 	move	s0,a2
  4029bc:	00e08821 	move	s1,a3
  4029c0:	3c020040 	lui	v0,0x40
  4029c4:	8c426400 	lw	v0,25600(v0)
  4029c8:	8c44017c 	lw	a0,380(v0)
  4029cc:	00602821 	move	a1,v1
  4029d0:	01003021 	move	a2,t0
  4029d4:	0c100644 	jal	401910 <ipc_send>
  4029d8:	24070200 	li	a3,512
  4029dc:	27a40010 	addiu	a0,sp,16
  4029e0:	02002821 	move	a1,s0
  4029e4:	0c10066a 	jal	4019a8 <ipc_recv>
  4029e8:	02203021 	move	a2,s1
  4029ec:	8fbf0020 	lw	ra,32(sp)
  4029f0:	8fb1001c 	lw	s1,28(sp)
  4029f4:	8fb00018 	lw	s0,24(sp)
  4029f8:	03e00008 	jr	ra
  4029fc:	27bd0028 	addiu	sp,sp,40

00402a00 <fsipc_open>:
  402a00:	27bdffd0 	addiu	sp,sp,-48
  402a04:	afbf0028 	sw	ra,40(sp)
  402a08:	afb30024 	sw	s3,36(sp)
  402a0c:	afb20020 	sw	s2,32(sp)
  402a10:	afb1001c 	sw	s1,28(sp)
  402a14:	afb00018 	sw	s0,24(sp)
  402a18:	00808821 	move	s1,a0
  402a1c:	00a09021 	move	s2,a1
  402a20:	00c09821 	move	s3,a2
  402a24:	3c020040 	lui	v0,0x40
  402a28:	0c100684 	jal	401a10 <strlen>
  402a2c:	24504400 	addiu	s0,v0,17408
  402a30:	28420400 	slti	v0,v0,1024
  402a34:	1040000a 	beqz	v0,402a60 <fsipc_open+0x60>
  402a38:	2402fff6 	li	v0,-10
  402a3c:	02002021 	move	a0,s0
  402a40:	0c10068d 	jal	401a34 <strcpy>
  402a44:	02202821 	move	a1,s1
  402a48:	ae120400 	sw	s2,1024(s0)
  402a4c:	24040001 	li	a0,1
  402a50:	02002821 	move	a1,s0
  402a54:	02603021 	move	a2,s3
  402a58:	0c100a68 	jal	4029a0 <fsipc>
  402a5c:	27a70010 	addiu	a3,sp,16
  402a60:	8fbf0028 	lw	ra,40(sp)
  402a64:	8fb30024 	lw	s3,36(sp)
  402a68:	8fb20020 	lw	s2,32(sp)
  402a6c:	8fb1001c 	lw	s1,28(sp)
  402a70:	8fb00018 	lw	s0,24(sp)
  402a74:	03e00008 	jr	ra
  402a78:	27bd0030 	addiu	sp,sp,48

00402a7c <fsipc_map>:
  402a7c:	27bdffe0 	addiu	sp,sp,-32
  402a80:	afbf0018 	sw	ra,24(sp)
  402a84:	3c020040 	lui	v0,0x40
  402a88:	24434400 	addiu	v1,v0,17408
  402a8c:	ac444400 	sw	a0,17408(v0)
  402a90:	ac650004 	sw	a1,4(v1)
  402a94:	24040002 	li	a0,2
  402a98:	00602821 	move	a1,v1
  402a9c:	0c100a68 	jal	4029a0 <fsipc>
  402aa0:	27a70010 	addiu	a3,sp,16
  402aa4:	28430000 	slti	v1,v0,0
  402aa8:	0003100a 	movz	v0,zero,v1
  402aac:	8fbf0018 	lw	ra,24(sp)
  402ab0:	03e00008 	jr	ra
  402ab4:	27bd0020 	addiu	sp,sp,32

00402ab8 <fsipc_set_size>:
  402ab8:	27bdffe8 	addiu	sp,sp,-24
  402abc:	afbf0010 	sw	ra,16(sp)
  402ac0:	3c020040 	lui	v0,0x40
  402ac4:	24434400 	addiu	v1,v0,17408
  402ac8:	ac444400 	sw	a0,17408(v0)
  402acc:	ac650004 	sw	a1,4(v1)
  402ad0:	24040003 	li	a0,3
  402ad4:	00602821 	move	a1,v1
  402ad8:	00003021 	move	a2,zero
  402adc:	0c100a68 	jal	4029a0 <fsipc>
  402ae0:	00003821 	move	a3,zero
  402ae4:	8fbf0010 	lw	ra,16(sp)
  402ae8:	03e00008 	jr	ra
  402aec:	27bd0018 	addiu	sp,sp,24

00402af0 <fsipc_close>:
  402af0:	27bdffe8 	addiu	sp,sp,-24
  402af4:	afbf0010 	sw	ra,16(sp)
  402af8:	3c050040 	lui	a1,0x40
  402afc:	aca44400 	sw	a0,17408(a1)
  402b00:	24040004 	li	a0,4
  402b04:	24a54400 	addiu	a1,a1,17408
  402b08:	00003021 	move	a2,zero
  402b0c:	0c100a68 	jal	4029a0 <fsipc>
  402b10:	00003821 	move	a3,zero
  402b14:	8fbf0010 	lw	ra,16(sp)
  402b18:	03e00008 	jr	ra
  402b1c:	27bd0018 	addiu	sp,sp,24

00402b20 <fsipc_dirty>:
  402b20:	27bdffe8 	addiu	sp,sp,-24
  402b24:	afbf0010 	sw	ra,16(sp)
  402b28:	3c020040 	lui	v0,0x40
  402b2c:	24434400 	addiu	v1,v0,17408
  402b30:	ac444400 	sw	a0,17408(v0)
  402b34:	ac650004 	sw	a1,4(v1)
  402b38:	24040005 	li	a0,5
  402b3c:	00602821 	move	a1,v1
  402b40:	00003021 	move	a2,zero
  402b44:	0c100a68 	jal	4029a0 <fsipc>
  402b48:	00003821 	move	a3,zero
  402b4c:	8fbf0010 	lw	ra,16(sp)
  402b50:	03e00008 	jr	ra
  402b54:	27bd0018 	addiu	sp,sp,24

00402b58 <fsipc_remove>:
  402b58:	27bdffe0 	addiu	sp,sp,-32
  402b5c:	afbf0018 	sw	ra,24(sp)
  402b60:	afb10014 	sw	s1,20(sp)
  402b64:	afb00010 	sw	s0,16(sp)
  402b68:	00808821 	move	s1,a0
  402b6c:	3c020040 	lui	v0,0x40
  402b70:	0c100684 	jal	401a10 <strlen>
  402b74:	24504400 	addiu	s0,v0,17408
  402b78:	28420400 	slti	v0,v0,1024
  402b7c:	10400009 	beqz	v0,402ba4 <fsipc_remove+0x4c>
  402b80:	2402fff6 	li	v0,-10
  402b84:	02002021 	move	a0,s0
  402b88:	0c10068d 	jal	401a34 <strcpy>
  402b8c:	02202821 	move	a1,s1
  402b90:	24040006 	li	a0,6
  402b94:	02002821 	move	a1,s0
  402b98:	00003021 	move	a2,zero
  402b9c:	0c100a68 	jal	4029a0 <fsipc>
  402ba0:	00003821 	move	a3,zero
  402ba4:	8fbf0018 	lw	ra,24(sp)
  402ba8:	8fb10014 	lw	s1,20(sp)
  402bac:	8fb00010 	lw	s0,16(sp)
  402bb0:	03e00008 	jr	ra
  402bb4:	27bd0020 	addiu	sp,sp,32

00402bb8 <fsipc_sync>:
  402bb8:	27bdffe8 	addiu	sp,sp,-24
  402bbc:	afbf0010 	sw	ra,16(sp)
  402bc0:	24040007 	li	a0,7
  402bc4:	3c050040 	lui	a1,0x40
  402bc8:	24a54400 	addiu	a1,a1,17408
  402bcc:	00003021 	move	a2,zero
  402bd0:	0c100a68 	jal	4029a0 <fsipc>
  402bd4:	00003821 	move	a3,zero
  402bd8:	8fbf0010 	lw	ra,16(sp)
  402bdc:	03e00008 	jr	ra
  402be0:	27bd0018 	addiu	sp,sp,24
	...

00402bf0 <diskaddr>:
  402bf0:	27bdffe8 	addiu	sp,sp,-24
  402bf4:	afbf0010 	sw	ra,16(sp)
  402bf8:	3c020041 	lui	v0,0x41
  402bfc:	8c42b068 	lw	v0,-20376(v0)
  402c00:	1040000b 	beqz	v0,402c30 <diskaddr+0x40>
  402c04:	00803821 	move	a3,a0
  402c08:	8c420004 	lw	v0,4(v0)
  402c0c:	0082102b 	sltu	v0,a0,v0
  402c10:	14400008 	bnez	v0,402c34 <diskaddr+0x44>
  402c14:	00071b00 	sll	v1,a3,0xc
  402c18:	3c040041 	lui	a0,0x41
  402c1c:	2484aa60 	addiu	a0,a0,-21920
  402c20:	24050011 	li	a1,17
  402c24:	3c060041 	lui	a2,0x41
  402c28:	0c10022c 	jal	4008b0 <_user_panic>
  402c2c:	24c6aa68 	addiu	a2,a2,-21912
  402c30:	00071b00 	sll	v1,a3,0xc
  402c34:	3c021000 	lui	v0,0x1000
  402c38:	00621021 	addu	v0,v1,v0
  402c3c:	8fbf0010 	lw	ra,16(sp)
  402c40:	03e00008 	jr	ra
  402c44:	27bd0018 	addiu	sp,sp,24

00402c48 <va_is_mapped>:
  402c48:	00041582 	srl	v0,a0,0x16
  402c4c:	00021080 	sll	v0,v0,0x2
  402c50:	3c030040 	lui	v1,0x40
  402c54:	8c63640c 	lw	v1,25612(v1)
  402c58:	00431021 	addu	v0,v0,v1
  402c5c:	8c420000 	lw	v0,0(v0)
  402c60:	30420200 	andi	v0,v0,0x200
  402c64:	1040000b 	beqz	v0,402c94 <va_is_mapped+0x4c>
  402c68:	3c030040 	lui	v1,0x40
  402c6c:	00041302 	srl	v0,a0,0xc
  402c70:	00021080 	sll	v0,v0,0x2
  402c74:	8c636408 	lw	v1,25608(v1)
  402c78:	00431021 	addu	v0,v0,v1
  402c7c:	8c420000 	lw	v0,0(v0)
  402c80:	30420200 	andi	v0,v0,0x200
  402c84:	10400003 	beqz	v0,402c94 <va_is_mapped+0x4c>
  402c88:	00000000 	nop
  402c8c:	03e00008 	jr	ra
  402c90:	24020001 	li	v0,1
  402c94:	03e00008 	jr	ra
  402c98:	00001021 	move	v0,zero

00402c9c <block_is_mapped>:
  402c9c:	27bdffe8 	addiu	sp,sp,-24
  402ca0:	afbf0014 	sw	ra,20(sp)
  402ca4:	0c100afc 	jal	402bf0 <diskaddr>
  402ca8:	afb00010 	sw	s0,16(sp)
  402cac:	00408021 	move	s0,v0
  402cb0:	0c100b12 	jal	402c48 <va_is_mapped>
  402cb4:	00402021 	move	a0,v0
  402cb8:	0002800a 	movz	s0,zero,v0
  402cbc:	02001021 	move	v0,s0
  402cc0:	8fbf0014 	lw	ra,20(sp)
  402cc4:	8fb00010 	lw	s0,16(sp)
  402cc8:	03e00008 	jr	ra
  402ccc:	27bd0018 	addiu	sp,sp,24

00402cd0 <va_is_dirty>:
  402cd0:	03e00008 	jr	ra
  402cd4:	24020001 	li	v0,1

00402cd8 <block_is_dirty>:
  402cd8:	27bdffe8 	addiu	sp,sp,-24
  402cdc:	afbf0014 	sw	ra,20(sp)
  402ce0:	0c100afc 	jal	402bf0 <diskaddr>
  402ce4:	afb00010 	sw	s0,16(sp)
  402ce8:	00408021 	move	s0,v0
  402cec:	0c100b12 	jal	402c48 <va_is_mapped>
  402cf0:	00402021 	move	a0,v0
  402cf4:	10400006 	beqz	v0,402d10 <block_is_dirty+0x38>
  402cf8:	00001021 	move	v0,zero
  402cfc:	0c100b34 	jal	402cd0 <va_is_dirty>
  402d00:	02002021 	move	a0,s0
  402d04:	14400002 	bnez	v0,402d10 <block_is_dirty+0x38>
  402d08:	24020001 	li	v0,1
  402d0c:	00001021 	move	v0,zero
  402d10:	8fbf0014 	lw	ra,20(sp)
  402d14:	8fb00010 	lw	s0,16(sp)
  402d18:	03e00008 	jr	ra
  402d1c:	27bd0018 	addiu	sp,sp,24

00402d20 <map_block>:
  402d20:	27bdffe8 	addiu	sp,sp,-24
  402d24:	afbf0014 	sw	ra,20(sp)
  402d28:	afb00010 	sw	s0,16(sp)
  402d2c:	0c100b27 	jal	402c9c <block_is_mapped>
  402d30:	00808021 	move	s0,a0
  402d34:	14400007 	bnez	v0,402d54 <map_block+0x34>
  402d38:	00001021 	move	v0,zero
  402d3c:	0c100afc 	jal	402bf0 <diskaddr>
  402d40:	02002021 	move	a0,s0
  402d44:	00002021 	move	a0,zero
  402d48:	00402821 	move	a1,v0
  402d4c:	0c1005c3 	jal	40170c <syscall_mem_alloc>
  402d50:	24060600 	li	a2,1536
  402d54:	8fbf0014 	lw	ra,20(sp)
  402d58:	8fb00010 	lw	s0,16(sp)
  402d5c:	03e00008 	jr	ra
  402d60:	27bd0018 	addiu	sp,sp,24

00402d64 <read_block>:
  402d64:	27bdffd8 	addiu	sp,sp,-40
  402d68:	afbf0020 	sw	ra,32(sp)
  402d6c:	afb3001c 	sw	s3,28(sp)
  402d70:	afb20018 	sw	s2,24(sp)
  402d74:	afb10014 	sw	s1,20(sp)
  402d78:	afb00010 	sw	s0,16(sp)
  402d7c:	00808821 	move	s1,a0
  402d80:	00a09821 	move	s3,a1
  402d84:	3c020041 	lui	v0,0x41
  402d88:	8c42b068 	lw	v0,-20376(v0)
  402d8c:	1040000c 	beqz	v0,402dc0 <read_block+0x5c>
  402d90:	00c09021 	move	s2,a2
  402d94:	8c420004 	lw	v0,4(v0)
  402d98:	0082102b 	sltu	v0,a0,v0
  402d9c:	14400009 	bnez	v0,402dc4 <read_block+0x60>
  402da0:	3c020041 	lui	v0,0x41
  402da4:	3c040041 	lui	a0,0x41
  402da8:	2484aa60 	addiu	a0,a0,-21920
  402dac:	24050056 	li	a1,86
  402db0:	3c060041 	lui	a2,0x41
  402db4:	24c6aa8c 	addiu	a2,a2,-21876
  402db8:	0c10022c 	jal	4008b0 <_user_panic>
  402dbc:	02203821 	move	a3,s1
  402dc0:	3c020041 	lui	v0,0x41
  402dc4:	8c42b064 	lw	v0,-20380(v0)
  402dc8:	1040000b 	beqz	v0,402df8 <read_block+0x94>
  402dcc:	00000000 	nop
  402dd0:	0c100c00 	jal	403000 <block_is_free>
  402dd4:	02202021 	move	a0,s1
  402dd8:	10400007 	beqz	v0,402df8 <read_block+0x94>
  402ddc:	3c040041 	lui	a0,0x41
  402de0:	2484aa60 	addiu	a0,a0,-21920
  402de4:	24050059 	li	a1,89
  402de8:	3c060041 	lui	a2,0x41
  402dec:	24c6aab0 	addiu	a2,a2,-21840
  402df0:	0c10022c 	jal	4008b0 <_user_panic>
  402df4:	02203821 	move	a3,s1
  402df8:	0c100afc 	jal	402bf0 <diskaddr>
  402dfc:	02202021 	move	a0,s1
  402e00:	12600002 	beqz	s3,402e0c <read_block+0xa8>
  402e04:	00408021 	move	s0,v0
  402e08:	ae620000 	sw	v0,0(s3)
  402e0c:	0c100b27 	jal	402c9c <block_is_mapped>
  402e10:	02202021 	move	a0,s1
  402e14:	10400005 	beqz	v0,402e2c <read_block+0xc8>
  402e18:	00000000 	nop
  402e1c:	12400014 	beqz	s2,402e70 <read_block+0x10c>
  402e20:	00000000 	nop
  402e24:	10000012 	b	402e70 <read_block+0x10c>
  402e28:	ae400000 	sw	zero,0(s2)
  402e2c:	12400002 	beqz	s2,402e38 <read_block+0xd4>
  402e30:	24020001 	li	v0,1
  402e34:	ae420000 	sw	v0,0(s2)
  402e38:	00002021 	move	a0,zero
  402e3c:	02002821 	move	a1,s0
  402e40:	0c1005c3 	jal	40170c <syscall_mem_alloc>
  402e44:	24060600 	li	a2,1536
  402e48:	3c040041 	lui	a0,0x41
  402e4c:	2484aacc 	addiu	a0,a0,-21812
  402e50:	02202821 	move	a1,s1
  402e54:	0c10021d 	jal	400874 <writef>
  402e58:	02003021 	move	a2,s0
  402e5c:	24040001 	li	a0,1
  402e60:	001128c0 	sll	a1,s1,0x3
  402e64:	02003021 	move	a2,s0
  402e68:	0c100f88 	jal	403e20 <ide_read>
  402e6c:	24070008 	li	a3,8
  402e70:	3c040041 	lui	a0,0x41
  402e74:	0c10021d 	jal	400874 <writef>
  402e78:	2484ab04 	addiu	a0,a0,-21756
  402e7c:	00001021 	move	v0,zero
  402e80:	8fbf0020 	lw	ra,32(sp)
  402e84:	8fb3001c 	lw	s3,28(sp)
  402e88:	8fb20018 	lw	s2,24(sp)
  402e8c:	8fb10014 	lw	s1,20(sp)
  402e90:	8fb00010 	lw	s0,16(sp)
  402e94:	03e00008 	jr	ra
  402e98:	27bd0028 	addiu	sp,sp,40

00402e9c <write_block>:
  402e9c:	27bdffd8 	addiu	sp,sp,-40
  402ea0:	afbf0020 	sw	ra,32(sp)
  402ea4:	afb1001c 	sw	s1,28(sp)
  402ea8:	afb00018 	sw	s0,24(sp)
  402eac:	0c100b27 	jal	402c9c <block_is_mapped>
  402eb0:	00808821 	move	s1,a0
  402eb4:	14400007 	bnez	v0,402ed4 <write_block+0x38>
  402eb8:	3c040041 	lui	a0,0x41
  402ebc:	2484aa60 	addiu	a0,a0,-21920
  402ec0:	2405007a 	li	a1,122
  402ec4:	3c060041 	lui	a2,0x41
  402ec8:	24c6ab20 	addiu	a2,a2,-21728
  402ecc:	0c10022c 	jal	4008b0 <_user_panic>
  402ed0:	02203821 	move	a3,s1
  402ed4:	0c100afc 	jal	402bf0 <diskaddr>
  402ed8:	02202021 	move	a0,s1
  402edc:	00408021 	move	s0,v0
  402ee0:	3c040041 	lui	a0,0x41
  402ee4:	2484ab3c 	addiu	a0,a0,-21700
  402ee8:	02202821 	move	a1,s1
  402eec:	0c10021d 	jal	400874 <writef>
  402ef0:	00403021 	move	a2,v0
  402ef4:	24040001 	li	a0,1
  402ef8:	001128c0 	sll	a1,s1,0x3
  402efc:	02003021 	move	a2,s0
  402f00:	0c100fbc 	jal	403ef0 <ide_write>
  402f04:	24070008 	li	a3,8
  402f08:	24020200 	li	v0,512
  402f0c:	afa20010 	sw	v0,16(sp)
  402f10:	00002021 	move	a0,zero
  402f14:	02002821 	move	a1,s0
  402f18:	00003021 	move	a2,zero
  402f1c:	0c1005d1 	jal	401744 <syscall_mem_map>
  402f20:	02003821 	move	a3,s0
  402f24:	8fbf0020 	lw	ra,32(sp)
  402f28:	8fb1001c 	lw	s1,28(sp)
  402f2c:	8fb00018 	lw	s0,24(sp)
  402f30:	03e00008 	jr	ra
  402f34:	27bd0028 	addiu	sp,sp,40

00402f38 <unmap_block>:
  402f38:	27bdffe8 	addiu	sp,sp,-24
  402f3c:	afbf0014 	sw	ra,20(sp)
  402f40:	afb00010 	sw	s0,16(sp)
  402f44:	0c100b27 	jal	402c9c <block_is_mapped>
  402f48:	00808021 	move	s0,a0
  402f4c:	10400029 	beqz	v0,402ff4 <unmap_block+0xbc>
  402f50:	8fbf0014 	lw	ra,20(sp)
  402f54:	0c100c00 	jal	403000 <block_is_free>
  402f58:	02002021 	move	a0,s0
  402f5c:	1440000c 	bnez	v0,402f90 <unmap_block+0x58>
  402f60:	00000000 	nop
  402f64:	0c100b36 	jal	402cd8 <block_is_dirty>
  402f68:	02002021 	move	a0,s0
  402f6c:	10400008 	beqz	v0,402f90 <unmap_block+0x58>
  402f70:	3c040041 	lui	a0,0x41
  402f74:	2484aa60 	addiu	a0,a0,-21920
  402f78:	2405008c 	li	a1,140
  402f7c:	3c060041 	lui	a2,0x41
  402f80:	24c6ab5c 	addiu	a2,a2,-21668
  402f84:	3c070041 	lui	a3,0x41
  402f88:	0c10022c 	jal	4008b0 <_user_panic>
  402f8c:	24e7ab74 	addiu	a3,a3,-21644
  402f90:	0c100afc 	jal	402bf0 <diskaddr>
  402f94:	02002021 	move	a0,s0
  402f98:	00002021 	move	a0,zero
  402f9c:	0c1005e1 	jal	401784 <syscall_mem_unmap>
  402fa0:	00402821 	move	a1,v0
  402fa4:	04410007 	bgez	v0,402fc4 <unmap_block+0x8c>
  402fa8:	3c040041 	lui	a0,0x41
  402fac:	2484aa60 	addiu	a0,a0,-21920
  402fb0:	2405008f 	li	a1,143
  402fb4:	3c060041 	lui	a2,0x41
  402fb8:	24c6aba8 	addiu	a2,a2,-21592
  402fbc:	0c10022c 	jal	4008b0 <_user_panic>
  402fc0:	00403821 	move	a3,v0
  402fc4:	0c100b27 	jal	402c9c <block_is_mapped>
  402fc8:	02002021 	move	a0,s0
  402fcc:	10400009 	beqz	v0,402ff4 <unmap_block+0xbc>
  402fd0:	8fbf0014 	lw	ra,20(sp)
  402fd4:	3c040041 	lui	a0,0x41
  402fd8:	2484aa60 	addiu	a0,a0,-21920
  402fdc:	24050090 	li	a1,144
  402fe0:	3c060041 	lui	a2,0x41
  402fe4:	24c6ab5c 	addiu	a2,a2,-21668
  402fe8:	3c070041 	lui	a3,0x41
  402fec:	0c10022c 	jal	4008b0 <_user_panic>
  402ff0:	24e7abcc 	addiu	a3,a3,-21556
  402ff4:	8fb00010 	lw	s0,16(sp)
  402ff8:	03e00008 	jr	ra
  402ffc:	27bd0018 	addiu	sp,sp,24

00403000 <block_is_free>:
  403000:	3c020041 	lui	v0,0x41
  403004:	8c42b068 	lw	v0,-20376(v0)
  403008:	10400011 	beqz	v0,403050 <block_is_free+0x50>
  40300c:	00000000 	nop
  403010:	8c420004 	lw	v0,4(v0)
  403014:	0082102b 	sltu	v0,a0,v0
  403018:	1040000d 	beqz	v0,403050 <block_is_free+0x50>
  40301c:	00041942 	srl	v1,a0,0x5
  403020:	3c020041 	lui	v0,0x41
  403024:	8c42b064 	lw	v0,-20380(v0)
  403028:	00031880 	sll	v1,v1,0x2
  40302c:	00621821 	addu	v1,v1,v0
  403030:	24020001 	li	v0,1
  403034:	00821004 	sllv	v0,v0,a0
  403038:	8c630000 	lw	v1,0(v1)
  40303c:	00431024 	and	v0,v0,v1
  403040:	10400003 	beqz	v0,403050 <block_is_free+0x50>
  403044:	00000000 	nop
  403048:	03e00008 	jr	ra
  40304c:	24020001 	li	v0,1
  403050:	03e00008 	jr	ra
  403054:	00001021 	move	v0,zero

00403058 <free_block>:
  403058:	27bdffe8 	addiu	sp,sp,-24
  40305c:	afbf0010 	sw	ra,16(sp)
  403060:	14800007 	bnez	a0,403080 <free_block+0x28>
  403064:	00801821 	move	v1,a0
  403068:	3c040041 	lui	a0,0x41
  40306c:	2484aa60 	addiu	a0,a0,-21920
  403070:	240500a5 	li	a1,165
  403074:	3c060041 	lui	a2,0x41
  403078:	0c10022c 	jal	4008b0 <_user_panic>
  40307c:	24c6abe8 	addiu	a2,a2,-21528
  403080:	00042142 	srl	a0,a0,0x5
  403084:	00042080 	sll	a0,a0,0x2
  403088:	3c020041 	lui	v0,0x41
  40308c:	8c42b064 	lw	v0,-20380(v0)
  403090:	00822021 	addu	a0,a0,v0
  403094:	24020001 	li	v0,1
  403098:	00621004 	sllv	v0,v0,v1
  40309c:	8c830000 	lw	v1,0(a0)
  4030a0:	00431025 	or	v0,v0,v1
  4030a4:	ac820000 	sw	v0,0(a0)
  4030a8:	8fbf0010 	lw	ra,16(sp)
  4030ac:	03e00008 	jr	ra
  4030b0:	27bd0018 	addiu	sp,sp,24

004030b4 <alloc_block_num>:
  4030b4:	27bdffe8 	addiu	sp,sp,-24
  4030b8:	afbf0014 	sw	ra,20(sp)
  4030bc:	afb00010 	sw	s0,16(sp)
  4030c0:	3c020041 	lui	v0,0x41
  4030c4:	8c42b068 	lw	v0,-20376(v0)
  4030c8:	8c460004 	lw	a2,4(v0)
  4030cc:	2cc20004 	sltiu	v0,a2,4
  4030d0:	14400026 	bnez	v0,40316c <alloc_block_num+0xb8>
  4030d4:	2410fff9 	li	s0,-7
  4030d8:	3c020041 	lui	v0,0x41
  4030dc:	8c47b064 	lw	a3,-20380(v0)
  4030e0:	24100003 	li	s0,3
  4030e4:	3c028000 	lui	v0,0x8000
  4030e8:	3449001f 	ori	t1,v0,0x1f
  4030ec:	240affe0 	li	t2,-32
  4030f0:	24080001 	li	t0,1
  4030f4:	06010002 	bgez	s0,403100 <alloc_block_num+0x4c>
  4030f8:	02001021 	move	v0,s0
  4030fc:	2602001f 	addiu	v0,s0,31
  403100:	00021143 	sra	v0,v0,0x5
  403104:	00021080 	sll	v0,v0,0x2
  403108:	00472821 	addu	a1,v0,a3
  40310c:	02091024 	and	v0,s0,t1
  403110:	04410004 	bgez	v0,403124 <alloc_block_num+0x70>
  403114:	8ca40000 	lw	a0,0(a1)
  403118:	2442ffff 	addiu	v0,v0,-1
  40311c:	004a1025 	or	v0,v0,t2
  403120:	24420001 	addiu	v0,v0,1
  403124:	00481804 	sllv	v1,t0,v0
  403128:	00641024 	and	v0,v1,a0
  40312c:	1040000c 	beqz	v0,403160 <alloc_block_num+0xac>
  403130:	26100001 	addiu	s0,s0,1
  403134:	2610ffff 	addiu	s0,s0,-1
  403138:	00031027 	nor	v0,zero,v1
  40313c:	00821024 	and	v0,a0,v0
  403140:	aca20000 	sw	v0,0(a1)
  403144:	06010002 	bgez	s0,403150 <alloc_block_num+0x9c>
  403148:	02002021 	move	a0,s0
  40314c:	26047fff 	addiu	a0,s0,32767
  403150:	0c100ba7 	jal	402e9c <write_block>
  403154:	000423c3 	sra	a0,a0,0xf
  403158:	10000005 	b	403170 <alloc_block_num+0xbc>
  40315c:	02001021 	move	v0,s0
  403160:	1606ffe4 	bne	s0,a2,4030f4 <alloc_block_num+0x40>
  403164:	00000000 	nop
  403168:	2410fff9 	li	s0,-7
  40316c:	02001021 	move	v0,s0
  403170:	8fbf0014 	lw	ra,20(sp)
  403174:	8fb00010 	lw	s0,16(sp)
  403178:	03e00008 	jr	ra
  40317c:	27bd0018 	addiu	sp,sp,24

00403180 <alloc_block>:
  403180:	27bdffe0 	addiu	sp,sp,-32
  403184:	afbf0018 	sw	ra,24(sp)
  403188:	afb10014 	sw	s1,20(sp)
  40318c:	0c100c2d 	jal	4030b4 <alloc_block_num>
  403190:	afb00010 	sw	s0,16(sp)
  403194:	04400008 	bltz	v0,4031b8 <alloc_block+0x38>
  403198:	00408021 	move	s0,v0
  40319c:	0c100b48 	jal	402d20 <map_block>
  4031a0:	00402021 	move	a0,v0
  4031a4:	04410004 	bgez	v0,4031b8 <alloc_block+0x38>
  4031a8:	00408821 	move	s1,v0
  4031ac:	0c100c16 	jal	403058 <free_block>
  4031b0:	02002021 	move	a0,s0
  4031b4:	02208021 	move	s0,s1
  4031b8:	02001021 	move	v0,s0
  4031bc:	8fbf0018 	lw	ra,24(sp)
  4031c0:	8fb10014 	lw	s1,20(sp)
  4031c4:	8fb00010 	lw	s0,16(sp)
  4031c8:	03e00008 	jr	ra
  4031cc:	27bd0020 	addiu	sp,sp,32

004031d0 <read_super>:
  4031d0:	27bdffd8 	addiu	sp,sp,-40
  4031d4:	afbf0020 	sw	ra,32(sp)
  4031d8:	3c040041 	lui	a0,0x41
  4031dc:	0c10021d 	jal	400874 <writef>
  4031e0:	2484ac04 	addiu	a0,a0,-21500
  4031e4:	24040001 	li	a0,1
  4031e8:	27a50018 	addiu	a1,sp,24
  4031ec:	0c100b59 	jal	402d64 <read_block>
  4031f0:	00003021 	move	a2,zero
  4031f4:	04410007 	bgez	v0,403214 <read_super+0x44>
  4031f8:	240500d9 	li	a1,217
  4031fc:	3c040041 	lui	a0,0x41
  403200:	2484aa60 	addiu	a0,a0,-21920
  403204:	3c060041 	lui	a2,0x41
  403208:	24c6ac1c 	addiu	a2,a2,-21476
  40320c:	0c10022c 	jal	4008b0 <_user_panic>
  403210:	00403821 	move	a3,v0
  403214:	3c040041 	lui	a0,0x41
  403218:	0c10021d 	jal	400874 <writef>
  40321c:	2484ac38 	addiu	a0,a0,-21448
  403220:	8fa30018 	lw	v1,24(sp)
  403224:	3c020041 	lui	v0,0x41
  403228:	ac43b068 	sw	v1,-20376(v0)
  40322c:	8c670000 	lw	a3,0(v1)
  403230:	3c026828 	lui	v0,0x6828
  403234:	34426097 	ori	v0,v0,0x6097
  403238:	10e20007 	beq	a3,v0,403258 <read_super+0x88>
  40323c:	3c040041 	lui	a0,0x41
  403240:	afa20010 	sw	v0,16(sp)
  403244:	2484aa60 	addiu	a0,a0,-21920
  403248:	240500dd 	li	a1,221
  40324c:	3c060041 	lui	a2,0x41
  403250:	0c10022c 	jal	4008b0 <_user_panic>
  403254:	24c6ac50 	addiu	a2,a2,-21424
  403258:	8c620004 	lw	v0,4(v1)
  40325c:	3c03000c 	lui	v1,0xc
  403260:	0062102b 	sltu	v0,v1,v0
  403264:	10400006 	beqz	v0,403280 <read_super+0xb0>
  403268:	240500e0 	li	a1,224
  40326c:	3c040041 	lui	a0,0x41
  403270:	2484aa60 	addiu	a0,a0,-21920
  403274:	3c060041 	lui	a2,0x41
  403278:	0c10022c 	jal	4008b0 <_user_panic>
  40327c:	24c6ac74 	addiu	a2,a2,-21388
  403280:	3c040041 	lui	a0,0x41
  403284:	0c10021d 	jal	400874 <writef>
  403288:	2484ac90 	addiu	a0,a0,-21360
  40328c:	8fbf0020 	lw	ra,32(sp)
  403290:	03e00008 	jr	ra
  403294:	27bd0028 	addiu	sp,sp,40

00403298 <read_bitmap>:
  403298:	27bdffe0 	addiu	sp,sp,-32
  40329c:	afbf0018 	sw	ra,24(sp)
  4032a0:	afb10014 	sw	s1,20(sp)
  4032a4:	afb00010 	sw	s0,16(sp)
  4032a8:	3c020041 	lui	v0,0x41
  4032ac:	8c42b068 	lw	v0,-20376(v0)
  4032b0:	8c420004 	lw	v0,4(v0)
  4032b4:	000213c2 	srl	v0,v0,0xf
  4032b8:	24420001 	addiu	v0,v0,1
  4032bc:	3c030041 	lui	v1,0x41
  4032c0:	1040000c 	beqz	v0,4032f4 <read_bitmap+0x5c>
  4032c4:	ac62b06c 	sw	v0,-20372(v1)
  4032c8:	00008021 	move	s0,zero
  4032cc:	00608821 	move	s1,v1
  4032d0:	26040002 	addiu	a0,s0,2
  4032d4:	02002821 	move	a1,s0
  4032d8:	0c100b59 	jal	402d64 <read_block>
  4032dc:	00003021 	move	a2,zero
  4032e0:	26100001 	addiu	s0,s0,1
  4032e4:	8e22b06c 	lw	v0,-20372(s1)
  4032e8:	0202102b 	sltu	v0,s0,v0
  4032ec:	1440fff9 	bnez	v0,4032d4 <read_bitmap+0x3c>
  4032f0:	26040002 	addiu	a0,s0,2
  4032f4:	0c100afc 	jal	402bf0 <diskaddr>
  4032f8:	24040002 	li	a0,2
  4032fc:	3c030041 	lui	v1,0x41
  403300:	ac62b064 	sw	v0,-20380(v1)
  403304:	0c100c00 	jal	403000 <block_is_free>
  403308:	00002021 	move	a0,zero
  40330c:	10400008 	beqz	v0,403330 <read_bitmap+0x98>
  403310:	3c040041 	lui	a0,0x41
  403314:	2484aa60 	addiu	a0,a0,-21920
  403318:	240500fb 	li	a1,251
  40331c:	3c060041 	lui	a2,0x41
  403320:	24c6ab5c 	addiu	a2,a2,-21668
  403324:	3c070041 	lui	a3,0x41
  403328:	0c10022c 	jal	4008b0 <_user_panic>
  40332c:	24e7aca4 	addiu	a3,a3,-21340
  403330:	0c100c00 	jal	403000 <block_is_free>
  403334:	24040001 	li	a0,1
  403338:	1040002c 	beqz	v0,4033ec <read_bitmap+0x154>
  40333c:	3c020041 	lui	v0,0x41
  403340:	3c040041 	lui	a0,0x41
  403344:	2484aa60 	addiu	a0,a0,-21920
  403348:	240500fc 	li	a1,252
  40334c:	3c060041 	lui	a2,0x41
  403350:	24c6ab5c 	addiu	a2,a2,-21668
  403354:	3c070041 	lui	a3,0x41
  403358:	0c10022c 	jal	4008b0 <_user_panic>
  40335c:	24e7acb8 	addiu	a3,a3,-21320
  403360:	3c110041 	lui	s1,0x41
  403364:	0c100c00 	jal	403000 <block_is_free>
  403368:	26040002 	addiu	a0,s0,2
  40336c:	10400009 	beqz	v0,403394 <read_bitmap+0xfc>
  403370:	8e22b06c 	lw	v0,-20372(s1)
  403374:	3c040041 	lui	a0,0x41
  403378:	2484aa60 	addiu	a0,a0,-21920
  40337c:	240500fe 	li	a1,254
  403380:	3c060041 	lui	a2,0x41
  403384:	24c6ab5c 	addiu	a2,a2,-21668
  403388:	3c070041 	lui	a3,0x41
  40338c:	0c10022c 	jal	4008b0 <_user_panic>
  403390:	24e7accc 	addiu	a3,a3,-21300
  403394:	26100001 	addiu	s0,s0,1
  403398:	0202102b 	sltu	v0,s0,v0
  40339c:	1440fff1 	bnez	v0,403364 <read_bitmap+0xcc>
  4033a0:	3c020041 	lui	v0,0x41
  4033a4:	8c42b064 	lw	v0,-20380(v0)
  4033a8:	14400008 	bnez	v0,4033cc <read_bitmap+0x134>
  4033ac:	240500ff 	li	a1,255
  4033b0:	3c040041 	lui	a0,0x41
  4033b4:	2484aa60 	addiu	a0,a0,-21920
  4033b8:	3c060041 	lui	a2,0x41
  4033bc:	24c6ab5c 	addiu	a2,a2,-21668
  4033c0:	3c070041 	lui	a3,0x41
  4033c4:	0c10022c 	jal	4008b0 <_user_panic>
  4033c8:	24e7ace0 	addiu	a3,a3,-21280
  4033cc:	3c040041 	lui	a0,0x41
  4033d0:	0c10021d 	jal	400874 <writef>
  4033d4:	2484ace8 	addiu	a0,a0,-21272
  4033d8:	8fbf0018 	lw	ra,24(sp)
  4033dc:	8fb10014 	lw	s1,20(sp)
  4033e0:	8fb00010 	lw	s0,16(sp)
  4033e4:	03e00008 	jr	ra
  4033e8:	27bd0020 	addiu	sp,sp,32
  4033ec:	8c42b06c 	lw	v0,-20372(v0)
  4033f0:	1040ffec 	beqz	v0,4033a4 <read_bitmap+0x10c>
  4033f4:	3c020041 	lui	v0,0x41
  4033f8:	1000ffd9 	b	403360 <read_bitmap+0xc8>
  4033fc:	00008021 	move	s0,zero

00403400 <check_write_block>:
  403400:	27bdffe8 	addiu	sp,sp,-24
  403404:	afbf0014 	sw	ra,20(sp)
  403408:	afb00010 	sw	s0,16(sp)
  40340c:	3c020041 	lui	v0,0x41
  403410:	ac40b068 	sw	zero,-20376(v0)
  403414:	00002021 	move	a0,zero
  403418:	00002821 	move	a1,zero
  40341c:	0c100b59 	jal	402d64 <read_block>
  403420:	00003021 	move	a2,zero
  403424:	0c100afc 	jal	402bf0 <diskaddr>
  403428:	24040001 	li	a0,1
  40342c:	00408021 	move	s0,v0
  403430:	0c100afc 	jal	402bf0 <diskaddr>
  403434:	00002021 	move	a0,zero
  403438:	02002021 	move	a0,s0
  40343c:	00402821 	move	a1,v0
  403440:	0c10047c 	jal	4011f0 <user_bcopy>
  403444:	24061000 	li	a2,4096
  403448:	0c100afc 	jal	402bf0 <diskaddr>
  40344c:	24040001 	li	a0,1
  403450:	00402021 	move	a0,v0
  403454:	3c050041 	lui	a1,0x41
  403458:	0c10068d 	jal	401a34 <strcpy>
  40345c:	24a5ad00 	addiu	a1,a1,-21248
  403460:	0c100ba7 	jal	402e9c <write_block>
  403464:	24040001 	li	a0,1
  403468:	0c100b27 	jal	402c9c <block_is_mapped>
  40346c:	24040001 	li	a0,1
  403470:	14400008 	bnez	v0,403494 <check_write_block+0x94>
  403474:	24050111 	li	a1,273
  403478:	3c040041 	lui	a0,0x41
  40347c:	2484aa60 	addiu	a0,a0,-21920
  403480:	3c060041 	lui	a2,0x41
  403484:	24c6ab5c 	addiu	a2,a2,-21668
  403488:	3c070041 	lui	a3,0x41
  40348c:	0c10022c 	jal	4008b0 <_user_panic>
  403490:	24e7ad08 	addiu	a3,a3,-21240
  403494:	0c100afc 	jal	402bf0 <diskaddr>
  403498:	24040001 	li	a0,1
  40349c:	00002021 	move	a0,zero
  4034a0:	0c1005e1 	jal	401784 <syscall_mem_unmap>
  4034a4:	00402821 	move	a1,v0
  4034a8:	0c100b27 	jal	402c9c <block_is_mapped>
  4034ac:	24040001 	li	a0,1
  4034b0:	10400008 	beqz	v0,4034d4 <check_write_block+0xd4>
  4034b4:	3c060041 	lui	a2,0x41
  4034b8:	3c040041 	lui	a0,0x41
  4034bc:	2484aa60 	addiu	a0,a0,-21920
  4034c0:	24050116 	li	a1,278
  4034c4:	24c6ab5c 	addiu	a2,a2,-21668
  4034c8:	3c070041 	lui	a3,0x41
  4034cc:	0c10022c 	jal	4008b0 <_user_panic>
  4034d0:	24e7ad1c 	addiu	a3,a3,-21220
  4034d4:	24040001 	li	a0,1
  4034d8:	00002821 	move	a1,zero
  4034dc:	0c100b59 	jal	402d64 <read_block>
  4034e0:	00003021 	move	a2,zero
  4034e4:	0c100afc 	jal	402bf0 <diskaddr>
  4034e8:	24040001 	li	a0,1
  4034ec:	00402021 	move	a0,v0
  4034f0:	3c050041 	lui	a1,0x41
  4034f4:	0c1006b4 	jal	401ad0 <strcmp>
  4034f8:	24a5ad00 	addiu	a1,a1,-21248
  4034fc:	10400008 	beqz	v0,403520 <check_write_block+0x120>
  403500:	2405011a 	li	a1,282
  403504:	3c040041 	lui	a0,0x41
  403508:	2484aa60 	addiu	a0,a0,-21920
  40350c:	3c060041 	lui	a2,0x41
  403510:	24c6ab5c 	addiu	a2,a2,-21668
  403514:	3c070041 	lui	a3,0x41
  403518:	0c10022c 	jal	4008b0 <_user_panic>
  40351c:	24e7ad30 	addiu	a3,a3,-21200
  403520:	0c100afc 	jal	402bf0 <diskaddr>
  403524:	00002021 	move	a0,zero
  403528:	00408021 	move	s0,v0
  40352c:	0c100afc 	jal	402bf0 <diskaddr>
  403530:	24040001 	li	a0,1
  403534:	02002021 	move	a0,s0
  403538:	00402821 	move	a1,v0
  40353c:	0c10047c 	jal	4011f0 <user_bcopy>
  403540:	24061000 	li	a2,4096
  403544:	0c100ba7 	jal	402e9c <write_block>
  403548:	24040001 	li	a0,1
  40354c:	0c100afc 	jal	402bf0 <diskaddr>
  403550:	24040001 	li	a0,1
  403554:	3c030041 	lui	v1,0x41
  403558:	ac62b068 	sw	v0,-20376(v1)
  40355c:	3c040041 	lui	a0,0x41
  403560:	0c10021d 	jal	400874 <writef>
  403564:	2484ad5c 	addiu	a0,a0,-21156
  403568:	8fbf0014 	lw	ra,20(sp)
  40356c:	8fb00010 	lw	s0,16(sp)
  403570:	03e00008 	jr	ra
  403574:	27bd0018 	addiu	sp,sp,24

00403578 <fs_init>:
  403578:	27bdffe8 	addiu	sp,sp,-24
  40357c:	afbf0010 	sw	ra,16(sp)
  403580:	0c100c74 	jal	4031d0 <read_super>
  403584:	00000000 	nop
  403588:	0c100d00 	jal	403400 <check_write_block>
  40358c:	00000000 	nop
  403590:	0c100ca6 	jal	403298 <read_bitmap>
  403594:	00000000 	nop
  403598:	8fbf0010 	lw	ra,16(sp)
  40359c:	03e00008 	jr	ra
  4035a0:	27bd0018 	addiu	sp,sp,24

004035a4 <file_block_walk>:
  4035a4:	27bdffd8 	addiu	sp,sp,-40
  4035a8:	afbf0024 	sw	ra,36(sp)
  4035ac:	afb20020 	sw	s2,32(sp)
  4035b0:	afb1001c 	sw	s1,28(sp)
  4035b4:	afb00018 	sw	s0,24(sp)
  4035b8:	00808821 	move	s1,a0
  4035bc:	00a08021 	move	s0,a1
  4035c0:	2ca2000a 	sltiu	v0,a1,10
  4035c4:	10400005 	beqz	v0,4035dc <file_block_walk+0x38>
  4035c8:	00c09021 	move	s2,a2
  4035cc:	24830088 	addiu	v1,a0,136
  4035d0:	00051080 	sll	v0,a1,0x2
  4035d4:	1000001f 	b	403654 <file_block_walk+0xb0>
  4035d8:	00621021 	addu	v0,v1,v0
  4035dc:	2ca20400 	sltiu	v0,a1,1024
  4035e0:	1040001e 	beqz	v0,40365c <file_block_walk+0xb8>
  4035e4:	2402fffd 	li	v0,-3
  4035e8:	8c8200b0 	lw	v0,176(a0)
  4035ec:	14400008 	bnez	v0,403610 <file_block_walk+0x6c>
  4035f0:	00000000 	nop
  4035f4:	10e00019 	beqz	a3,40365c <file_block_walk+0xb8>
  4035f8:	2402fff7 	li	v0,-9
  4035fc:	0c100c60 	jal	403180 <alloc_block>
  403600:	00000000 	nop
  403604:	04400016 	bltz	v0,403660 <file_block_walk+0xbc>
  403608:	8fbf0024 	lw	ra,36(sp)
  40360c:	ae2200b0 	sw	v0,176(s1)
  403610:	8e2400b0 	lw	a0,176(s1)
  403614:	27a50010 	addiu	a1,sp,16
  403618:	0c100b59 	jal	402d64 <read_block>
  40361c:	00003021 	move	a2,zero
  403620:	0440000e 	bltz	v0,40365c <file_block_walk+0xb8>
  403624:	8fa30010 	lw	v1,16(sp)
  403628:	14600009 	bnez	v1,403650 <file_block_walk+0xac>
  40362c:	00101080 	sll	v0,s0,0x2
  403630:	3c040041 	lui	a0,0x41
  403634:	2484aa60 	addiu	a0,a0,-21920
  403638:	24050144 	li	a1,324
  40363c:	3c060041 	lui	a2,0x41
  403640:	24c6ab5c 	addiu	a2,a2,-21668
  403644:	3c070041 	lui	a3,0x41
  403648:	0c10022c 	jal	4008b0 <_user_panic>
  40364c:	24e7ad74 	addiu	a3,a3,-21132
  403650:	00431021 	addu	v0,v0,v1
  403654:	ae420000 	sw	v0,0(s2)
  403658:	00001021 	move	v0,zero
  40365c:	8fbf0024 	lw	ra,36(sp)
  403660:	8fb20020 	lw	s2,32(sp)
  403664:	8fb1001c 	lw	s1,28(sp)
  403668:	8fb00018 	lw	s0,24(sp)
  40366c:	03e00008 	jr	ra
  403670:	27bd0028 	addiu	sp,sp,40

00403674 <file_map_block>:
  403674:	27bdffd8 	addiu	sp,sp,-40
  403678:	afbf0020 	sw	ra,32(sp)
  40367c:	afb1001c 	sw	s1,28(sp)
  403680:	afb00018 	sw	s0,24(sp)
  403684:	00c08821 	move	s1,a2
  403688:	00e08021 	move	s0,a3
  40368c:	0c100d69 	jal	4035a4 <file_block_walk>
  403690:	27a60010 	addiu	a2,sp,16
  403694:	04400011 	bltz	v0,4036dc <file_map_block+0x68>
  403698:	00401821 	move	v1,v0
  40369c:	8fa20010 	lw	v0,16(sp)
  4036a0:	8c420000 	lw	v0,0(v0)
  4036a4:	1440000a 	bnez	v0,4036d0 <file_map_block+0x5c>
  4036a8:	8fa20010 	lw	v0,16(sp)
  4036ac:	1200000b 	beqz	s0,4036dc <file_map_block+0x68>
  4036b0:	2403fff7 	li	v1,-9
  4036b4:	0c100c60 	jal	403180 <alloc_block>
  4036b8:	00000000 	nop
  4036bc:	04400007 	bltz	v0,4036dc <file_map_block+0x68>
  4036c0:	00401821 	move	v1,v0
  4036c4:	8fa20010 	lw	v0,16(sp)
  4036c8:	ac430000 	sw	v1,0(v0)
  4036cc:	8fa20010 	lw	v0,16(sp)
  4036d0:	8c420000 	lw	v0,0(v0)
  4036d4:	ae220000 	sw	v0,0(s1)
  4036d8:	00001821 	move	v1,zero
  4036dc:	00601021 	move	v0,v1
  4036e0:	8fbf0020 	lw	ra,32(sp)
  4036e4:	8fb1001c 	lw	s1,28(sp)
  4036e8:	8fb00018 	lw	s0,24(sp)
  4036ec:	03e00008 	jr	ra
  4036f0:	27bd0028 	addiu	sp,sp,40

004036f4 <file_clear_block>:
  4036f4:	27bdffe0 	addiu	sp,sp,-32
  4036f8:	afbf0018 	sw	ra,24(sp)
  4036fc:	27a60010 	addiu	a2,sp,16
  403700:	0c100d69 	jal	4035a4 <file_block_walk>
  403704:	00003821 	move	a3,zero
  403708:	0440000b 	bltz	v0,403738 <file_clear_block+0x44>
  40370c:	8fbf0018 	lw	ra,24(sp)
  403710:	8fa20010 	lw	v0,16(sp)
  403714:	8c440000 	lw	a0,0(v0)
  403718:	10800007 	beqz	a0,403738 <file_clear_block+0x44>
  40371c:	00001021 	move	v0,zero
  403720:	0c100c16 	jal	403058 <free_block>
  403724:	00000000 	nop
  403728:	8fa20010 	lw	v0,16(sp)
  40372c:	ac400000 	sw	zero,0(v0)
  403730:	00001021 	move	v0,zero
  403734:	8fbf0018 	lw	ra,24(sp)
  403738:	03e00008 	jr	ra
  40373c:	27bd0020 	addiu	sp,sp,32

00403740 <file_get_block>:
  403740:	27bdffe0 	addiu	sp,sp,-32
  403744:	afbf001c 	sw	ra,28(sp)
  403748:	afb00018 	sw	s0,24(sp)
  40374c:	00c08021 	move	s0,a2
  403750:	27a60014 	addiu	a2,sp,20
  403754:	0c100d9d 	jal	403674 <file_map_block>
  403758:	24070001 	li	a3,1
  40375c:	04400008 	bltz	v0,403780 <file_get_block+0x40>
  403760:	00401821 	move	v1,v0
  403764:	8fa40014 	lw	a0,20(sp)
  403768:	02002821 	move	a1,s0
  40376c:	0c100b59 	jal	402d64 <read_block>
  403770:	27a60010 	addiu	a2,sp,16
  403774:	00401821 	move	v1,v0
  403778:	28420000 	slti	v0,v0,0
  40377c:	0002180a 	movz	v1,zero,v0
  403780:	00601021 	move	v0,v1
  403784:	8fbf001c 	lw	ra,28(sp)
  403788:	8fb00018 	lw	s0,24(sp)
  40378c:	03e00008 	jr	ra
  403790:	27bd0020 	addiu	sp,sp,32

00403794 <file_dirty>:
  403794:	27bdffe0 	addiu	sp,sp,-32
  403798:	afbf0018 	sw	ra,24(sp)
  40379c:	00052b02 	srl	a1,a1,0xc
  4037a0:	0c100dd0 	jal	403740 <file_get_block>
  4037a4:	27a60010 	addiu	a2,sp,16
  4037a8:	04400006 	bltz	v0,4037c4 <file_dirty+0x30>
  4037ac:	8fa30010 	lw	v1,16(sp)
  4037b0:	90620000 	lbu	v0,0(v1)
  4037b4:	00021600 	sll	v0,v0,0x18
  4037b8:	00021603 	sra	v0,v0,0x18
  4037bc:	a0620000 	sb	v0,0(v1)
  4037c0:	00001021 	move	v0,zero
  4037c4:	8fbf0018 	lw	ra,24(sp)
  4037c8:	03e00008 	jr	ra
  4037cc:	27bd0020 	addiu	sp,sp,32

004037d0 <dir_lookup>:
  4037d0:	27bdffc0 	addiu	sp,sp,-64
  4037d4:	afbf0038 	sw	ra,56(sp)
  4037d8:	afb70034 	sw	s7,52(sp)
  4037dc:	afb60030 	sw	s6,48(sp)
  4037e0:	afb5002c 	sw	s5,44(sp)
  4037e4:	afb40028 	sw	s4,40(sp)
  4037e8:	afb30024 	sw	s3,36(sp)
  4037ec:	afb20020 	sw	s2,32(sp)
  4037f0:	afb1001c 	sw	s1,28(sp)
  4037f4:	afb00018 	sw	s0,24(sp)
  4037f8:	0080a821 	move	s5,a0
  4037fc:	00a09821 	move	s3,a1
  403800:	8c820080 	lw	v0,128(a0)
  403804:	0002a302 	srl	s4,v0,0xc
  403808:	12800017 	beqz	s4,403868 <dir_lookup+0x98>
  40380c:	00c0b821 	move	s7,a2
  403810:	0000b021 	move	s6,zero
  403814:	02a02021 	move	a0,s5
  403818:	02c02821 	move	a1,s6
  40381c:	0c100dd0 	jal	403740 <file_get_block>
  403820:	27a60010 	addiu	a2,sp,16
  403824:	04400011 	bltz	v0,40386c <dir_lookup+0x9c>
  403828:	8fb00010 	lw	s0,16(sp)
  40382c:	00008821 	move	s1,zero
  403830:	24120010 	li	s2,16
  403834:	02002021 	move	a0,s0
  403838:	0c1006b4 	jal	401ad0 <strcmp>
  40383c:	02602821 	move	a1,s3
  403840:	14400004 	bnez	v0,403854 <dir_lookup+0x84>
  403844:	26310001 	addiu	s1,s1,1
  403848:	aef00000 	sw	s0,0(s7)
  40384c:	10000007 	b	40386c <dir_lookup+0x9c>
  403850:	ae1500b4 	sw	s5,180(s0)
  403854:	1632fff7 	bne	s1,s2,403834 <dir_lookup+0x64>
  403858:	26100100 	addiu	s0,s0,256
  40385c:	26d60001 	addiu	s6,s6,1
  403860:	1696ffed 	bne	s4,s6,403818 <dir_lookup+0x48>
  403864:	02a02021 	move	a0,s5
  403868:	2402fff7 	li	v0,-9
  40386c:	8fbf0038 	lw	ra,56(sp)
  403870:	8fb70034 	lw	s7,52(sp)
  403874:	8fb60030 	lw	s6,48(sp)
  403878:	8fb5002c 	lw	s5,44(sp)
  40387c:	8fb40028 	lw	s4,40(sp)
  403880:	8fb30024 	lw	s3,36(sp)
  403884:	8fb20020 	lw	s2,32(sp)
  403888:	8fb1001c 	lw	s1,28(sp)
  40388c:	8fb00018 	lw	s0,24(sp)
  403890:	03e00008 	jr	ra
  403894:	27bd0040 	addiu	sp,sp,64

00403898 <dir_alloc_file>:
  403898:	27bdffd0 	addiu	sp,sp,-48
  40389c:	afbf0028 	sw	ra,40(sp)
  4038a0:	afb30024 	sw	s3,36(sp)
  4038a4:	afb20020 	sw	s2,32(sp)
  4038a8:	afb1001c 	sw	s1,28(sp)
  4038ac:	afb00018 	sw	s0,24(sp)
  4038b0:	00808021 	move	s0,a0
  4038b4:	8c820080 	lw	v0,128(a0)
  4038b8:	00028b02 	srl	s1,v0,0xc
  4038bc:	16200006 	bnez	s1,4038d8 <dir_alloc_file+0x40>
  4038c0:	00a09821 	move	s3,a1
  4038c4:	10000015 	b	40391c <dir_alloc_file+0x84>
  4038c8:	00009021 	move	s2,zero
  4038cc:	ae630000 	sw	v1,0(s3)
  4038d0:	1000001e 	b	40394c <dir_alloc_file+0xb4>
  4038d4:	00001021 	move	v0,zero
  4038d8:	00009021 	move	s2,zero
  4038dc:	02002021 	move	a0,s0
  4038e0:	02402821 	move	a1,s2
  4038e4:	0c100dd0 	jal	403740 <file_get_block>
  4038e8:	27a60010 	addiu	a2,sp,16
  4038ec:	04400017 	bltz	v0,40394c <dir_alloc_file+0xb4>
  4038f0:	8fa30010 	lw	v1,16(sp)
  4038f4:	00002021 	move	a0,zero
  4038f8:	24050010 	li	a1,16
  4038fc:	90620000 	lbu	v0,0(v1)
  403900:	1040fff2 	beqz	v0,4038cc <dir_alloc_file+0x34>
  403904:	24840001 	addiu	a0,a0,1
  403908:	1485fffc 	bne	a0,a1,4038fc <dir_alloc_file+0x64>
  40390c:	24630100 	addiu	v1,v1,256
  403910:	26520001 	addiu	s2,s2,1
  403914:	1632fff2 	bne	s1,s2,4038e0 <dir_alloc_file+0x48>
  403918:	02002021 	move	a0,s0
  40391c:	8e020080 	lw	v0,128(s0)
  403920:	24421000 	addiu	v0,v0,4096
  403924:	ae020080 	sw	v0,128(s0)
  403928:	02002021 	move	a0,s0
  40392c:	02402821 	move	a1,s2
  403930:	0c100dd0 	jal	403740 <file_get_block>
  403934:	27a60010 	addiu	a2,sp,16
  403938:	04400005 	bltz	v0,403950 <dir_alloc_file+0xb8>
  40393c:	8fbf0028 	lw	ra,40(sp)
  403940:	8fa20010 	lw	v0,16(sp)
  403944:	ae620000 	sw	v0,0(s3)
  403948:	00001021 	move	v0,zero
  40394c:	8fbf0028 	lw	ra,40(sp)
  403950:	8fb30024 	lw	s3,36(sp)
  403954:	8fb20020 	lw	s2,32(sp)
  403958:	8fb1001c 	lw	s1,28(sp)
  40395c:	8fb00018 	lw	s0,24(sp)
  403960:	03e00008 	jr	ra
  403964:	27bd0030 	addiu	sp,sp,48

00403968 <skip_slash>:
  403968:	80830000 	lb	v1,0(a0)
  40396c:	2402002f 	li	v0,47
  403970:	14620005 	bne	v1,v0,403988 <skip_slash+0x20>
  403974:	2403002f 	li	v1,47
  403978:	24840001 	addiu	a0,a0,1
  40397c:	80820000 	lb	v0,0(a0)
  403980:	1043fffd 	beq	v0,v1,403978 <skip_slash+0x10>
  403984:	00000000 	nop
  403988:	03e00008 	jr	ra
  40398c:	00801021 	move	v0,a0

00403990 <walk_path>:
  403990:	27bdff58 	addiu	sp,sp,-168
  403994:	afbf00a4 	sw	ra,164(sp)
  403998:	afb200a0 	sw	s2,160(sp)
  40399c:	afb1009c 	sw	s1,156(sp)
  4039a0:	afb00098 	sw	s0,152(sp)
  4039a4:	00a08021 	move	s0,a1
  4039a8:	0c100e5a 	jal	403968 <skip_slash>
  4039ac:	00c09021 	move	s2,a2
  4039b0:	00408821 	move	s1,v0
  4039b4:	3c020041 	lui	v0,0x41
  4039b8:	8c42b068 	lw	v0,-20376(v0)
  4039bc:	24450008 	addiu	a1,v0,8
  4039c0:	12000002 	beqz	s0,4039cc <walk_path+0x3c>
  4039c4:	a3a00018 	sb	zero,24(sp)
  4039c8:	ae000000 	sw	zero,0(s0)
  4039cc:	ae400000 	sw	zero,0(s2)
  4039d0:	82220000 	lb	v0,0(s1)
  4039d4:	10400020 	beqz	v0,403a58 <walk_path+0xc8>
  4039d8:	3c040041 	lui	a0,0x41
  4039dc:	0c10021d 	jal	400874 <writef>
  4039e0:	2484ad80 	addiu	a0,a0,-21120
  4039e4:	82230000 	lb	v1,0(s1)
  4039e8:	2402002f 	li	v0,47
  4039ec:	14620020 	bne	v1,v0,403a70 <walk_path+0xe0>
  4039f0:	02201021 	move	v0,s1
  4039f4:	1000000b 	b	403a24 <walk_path+0x94>
  4039f8:	00511823 	subu	v1,v0,s1
  4039fc:	02201021 	move	v0,s1
  403a00:	24420001 	addiu	v0,v0,1
  403a04:	80430000 	lb	v1,0(v0)
  403a08:	10640005 	beq	v1,a0,403a20 <walk_path+0x90>
  403a0c:	00000000 	nop
  403a10:	10600004 	beqz	v1,403a24 <walk_path+0x94>
  403a14:	00511823 	subu	v1,v0,s1
  403a18:	1000fffa 	b	403a04 <walk_path+0x74>
  403a1c:	24420001 	addiu	v0,v0,1
  403a20:	00511823 	subu	v1,v0,s1
  403a24:	28620080 	slti	v0,v1,128
  403a28:	10400015 	beqz	v0,403a80 <walk_path+0xf0>
  403a2c:	2402fff6 	li	v0,-10
  403a30:	27a20018 	addiu	v0,sp,24
  403a34:	afa20010 	sw	v0,16(sp)
  403a38:	afa30014 	sw	v1,20(sp)
  403a3c:	3c040041 	lui	a0,0x41
  403a40:	2484aa60 	addiu	a0,a0,-21920
  403a44:	24050200 	li	a1,512
  403a48:	3c060041 	lui	a2,0x41
  403a4c:	24c6ad98 	addiu	a2,a2,-21096
  403a50:	0c10022c 	jal	4008b0 <_user_panic>
  403a54:	02203821 	move	a3,s1
  403a58:	12000002 	beqz	s0,403a64 <walk_path+0xd4>
  403a5c:	00000000 	nop
  403a60:	ae000000 	sw	zero,0(s0)
  403a64:	ae450000 	sw	a1,0(s2)
  403a68:	10000005 	b	403a80 <walk_path+0xf0>
  403a6c:	00001021 	move	v0,zero
  403a70:	1460ffe2 	bnez	v1,4039fc <walk_path+0x6c>
  403a74:	2404002f 	li	a0,47
  403a78:	1000ffe9 	b	403a20 <walk_path+0x90>
  403a7c:	02201021 	move	v0,s1
  403a80:	8fbf00a4 	lw	ra,164(sp)
  403a84:	8fb200a0 	lw	s2,160(sp)
  403a88:	8fb1009c 	lw	s1,156(sp)
  403a8c:	8fb00098 	lw	s0,152(sp)
  403a90:	03e00008 	jr	ra
  403a94:	27bd00a8 	addiu	sp,sp,168

00403a98 <file_open>:
  403a98:	27bdff60 	addiu	sp,sp,-160
  403a9c:	afbf009c 	sw	ra,156(sp)
  403aa0:	afb00098 	sw	s0,152(sp)
  403aa4:	00a08021 	move	s0,a1
  403aa8:	27a50010 	addiu	a1,sp,16
  403aac:	27a60014 	addiu	a2,sp,20
  403ab0:	0c100e64 	jal	403990 <walk_path>
  403ab4:	27a70018 	addiu	a3,sp,24
  403ab8:	04400005 	bltz	v0,403ad0 <file_open+0x38>
  403abc:	8fbf009c 	lw	ra,156(sp)
  403ac0:	8fa20014 	lw	v0,20(sp)
  403ac4:	ae020000 	sw	v0,0(s0)
  403ac8:	00001021 	move	v0,zero
  403acc:	8fbf009c 	lw	ra,156(sp)
  403ad0:	8fb00098 	lw	s0,152(sp)
  403ad4:	03e00008 	jr	ra
  403ad8:	27bd00a0 	addiu	sp,sp,160

00403adc <file_create>:
  403adc:	27bdff60 	addiu	sp,sp,-160
  403ae0:	afbf009c 	sw	ra,156(sp)
  403ae4:	afb00098 	sw	s0,152(sp)
  403ae8:	00a08021 	move	s0,a1
  403aec:	27a50090 	addiu	a1,sp,144
  403af0:	27a60094 	addiu	a2,sp,148
  403af4:	0c100e64 	jal	403990 <walk_path>
  403af8:	27a70010 	addiu	a3,sp,16
  403afc:	14400003 	bnez	v0,403b0c <file_create+0x30>
  403b00:	00401821 	move	v1,v0
  403b04:	10000012 	b	403b50 <file_create+0x74>
  403b08:	2403fff5 	li	v1,-11
  403b0c:	2402fff7 	li	v0,-9
  403b10:	14620010 	bne	v1,v0,403b54 <file_create+0x78>
  403b14:	00601021 	move	v0,v1
  403b18:	8fa40090 	lw	a0,144(sp)
  403b1c:	1080000c 	beqz	a0,403b50 <file_create+0x74>
  403b20:	2403fff7 	li	v1,-9
  403b24:	0c100e26 	jal	403898 <dir_alloc_file>
  403b28:	27a50094 	addiu	a1,sp,148
  403b2c:	04400007 	bltz	v0,403b4c <file_create+0x70>
  403b30:	8fa40094 	lw	a0,148(sp)
  403b34:	0c10068d 	jal	401a34 <strcpy>
  403b38:	27a50010 	addiu	a1,sp,16
  403b3c:	8fa20094 	lw	v0,148(sp)
  403b40:	ae020000 	sw	v0,0(s0)
  403b44:	10000002 	b	403b50 <file_create+0x74>
  403b48:	00001821 	move	v1,zero
  403b4c:	2403fff7 	li	v1,-9
  403b50:	00601021 	move	v0,v1
  403b54:	8fbf009c 	lw	ra,156(sp)
  403b58:	8fb00098 	lw	s0,152(sp)
  403b5c:	03e00008 	jr	ra
  403b60:	27bd00a0 	addiu	sp,sp,160

00403b64 <file_truncate>:
  403b64:	27bdffd8 	addiu	sp,sp,-40
  403b68:	afbf0020 	sw	ra,32(sp)
  403b6c:	afb3001c 	sw	s3,28(sp)
  403b70:	afb20018 	sw	s2,24(sp)
  403b74:	afb10014 	sw	s1,20(sp)
  403b78:	afb00010 	sw	s0,16(sp)
  403b7c:	00809021 	move	s2,a0
  403b80:	00a09821 	move	s3,a1
  403b84:	8c820080 	lw	v0,128(a0)
  403b88:	00021302 	srl	v0,v0,0xc
  403b8c:	24430001 	addiu	v1,v0,1
  403b90:	00051302 	srl	v0,a1,0xc
  403b94:	16600003 	bnez	s3,403ba4 <file_truncate+0x40>
  403b98:	24450001 	addiu	a1,v0,1
  403b9c:	10000004 	b	403bb0 <file_truncate+0x4c>
  403ba0:	00002821 	move	a1,zero
  403ba4:	2ca2000b 	sltiu	v0,a1,11
  403ba8:	1040001c 	beqz	v0,403c1c <file_truncate+0xb8>
  403bac:	00a3102b 	sltu	v0,a1,v1
  403bb0:	00a3102b 	sltu	v0,a1,v1
  403bb4:	10400011 	beqz	v0,403bfc <file_truncate+0x98>
  403bb8:	ae4000b0 	sw	zero,176(s2)
  403bbc:	00a08021 	move	s0,a1
  403bc0:	00608821 	move	s1,v1
  403bc4:	02402021 	move	a0,s2
  403bc8:	0c100dbd 	jal	4036f4 <file_clear_block>
  403bcc:	02002821 	move	a1,s0
  403bd0:	26100001 	addiu	s0,s0,1
  403bd4:	12110009 	beq	s0,s1,403bfc <file_truncate+0x98>
  403bd8:	02402021 	move	a0,s2
  403bdc:	1000fffa 	b	403bc8 <file_truncate+0x64>
  403be0:	00000000 	nop
  403be4:	02402021 	move	a0,s2
  403be8:	0c100dbd 	jal	4036f4 <file_clear_block>
  403bec:	02002821 	move	a1,s0
  403bf0:	26100001 	addiu	s0,s0,1
  403bf4:	1611fffc 	bne	s0,s1,403be8 <file_truncate+0x84>
  403bf8:	02402021 	move	a0,s2
  403bfc:	ae530080 	sw	s3,128(s2)
  403c00:	8fbf0020 	lw	ra,32(sp)
  403c04:	8fb3001c 	lw	s3,28(sp)
  403c08:	8fb20018 	lw	s2,24(sp)
  403c0c:	8fb10014 	lw	s1,20(sp)
  403c10:	8fb00010 	lw	s0,16(sp)
  403c14:	03e00008 	jr	ra
  403c18:	27bd0028 	addiu	sp,sp,40
  403c1c:	1040fff7 	beqz	v0,403bfc <file_truncate+0x98>
  403c20:	00a08021 	move	s0,a1
  403c24:	1000ffef 	b	403be4 <file_truncate+0x80>
  403c28:	00608821 	move	s1,v1

00403c2c <file_set_size>:
  403c2c:	27bdffe0 	addiu	sp,sp,-32
  403c30:	afbf0018 	sw	ra,24(sp)
  403c34:	afb10014 	sw	s1,20(sp)
  403c38:	afb00010 	sw	s0,16(sp)
  403c3c:	00808021 	move	s0,a0
  403c40:	8c820080 	lw	v0,128(a0)
  403c44:	00a2102b 	sltu	v0,a1,v0
  403c48:	10400003 	beqz	v0,403c58 <file_set_size+0x2c>
  403c4c:	00a08821 	move	s1,a1
  403c50:	0c100ed9 	jal	403b64 <file_truncate>
  403c54:	00000000 	nop
  403c58:	ae110080 	sw	s1,128(s0)
  403c5c:	8e0400b4 	lw	a0,180(s0)
  403c60:	10800004 	beqz	a0,403c74 <file_set_size+0x48>
  403c64:	00001021 	move	v0,zero
  403c68:	0c100f22 	jal	403c88 <file_flush>
  403c6c:	00000000 	nop
  403c70:	00001021 	move	v0,zero
  403c74:	8fbf0018 	lw	ra,24(sp)
  403c78:	8fb10014 	lw	s1,20(sp)
  403c7c:	8fb00010 	lw	s0,16(sp)
  403c80:	03e00008 	jr	ra
  403c84:	27bd0020 	addiu	sp,sp,32

00403c88 <file_flush>:
  403c88:	27bdffd8 	addiu	sp,sp,-40
  403c8c:	afbf0024 	sw	ra,36(sp)
  403c90:	afb20020 	sw	s2,32(sp)
  403c94:	afb1001c 	sw	s1,28(sp)
  403c98:	afb00018 	sw	s0,24(sp)
  403c9c:	8c820080 	lw	v0,128(a0)
  403ca0:	00021302 	srl	v0,v0,0xc
  403ca4:	24510001 	addiu	s1,v0,1
  403ca8:	12200012 	beqz	s1,403cf4 <file_flush+0x6c>
  403cac:	00809021 	move	s2,a0
  403cb0:	00008021 	move	s0,zero
  403cb4:	02402021 	move	a0,s2
  403cb8:	02002821 	move	a1,s0
  403cbc:	27a60010 	addiu	a2,sp,16
  403cc0:	0c100d9d 	jal	403674 <file_map_block>
  403cc4:	00003821 	move	a3,zero
  403cc8:	0440000b 	bltz	v0,403cf8 <file_flush+0x70>
  403ccc:	8fbf0024 	lw	ra,36(sp)
  403cd0:	0c100b36 	jal	402cd8 <block_is_dirty>
  403cd4:	8fa40010 	lw	a0,16(sp)
  403cd8:	10400003 	beqz	v0,403ce8 <file_flush+0x60>
  403cdc:	00000000 	nop
  403ce0:	0c100ba7 	jal	402e9c <write_block>
  403ce4:	8fa40010 	lw	a0,16(sp)
  403ce8:	26100001 	addiu	s0,s0,1
  403cec:	1630fff1 	bne	s1,s0,403cb4 <file_flush+0x2c>
  403cf0:	00000000 	nop
  403cf4:	8fbf0024 	lw	ra,36(sp)
  403cf8:	8fb20020 	lw	s2,32(sp)
  403cfc:	8fb1001c 	lw	s1,28(sp)
  403d00:	8fb00018 	lw	s0,24(sp)
  403d04:	03e00008 	jr	ra
  403d08:	27bd0028 	addiu	sp,sp,40

00403d0c <fs_sync>:
  403d0c:	27bdffe0 	addiu	sp,sp,-32
  403d10:	afbf001c 	sw	ra,28(sp)
  403d14:	afb20018 	sw	s2,24(sp)
  403d18:	afb10014 	sw	s1,20(sp)
  403d1c:	afb00010 	sw	s0,16(sp)
  403d20:	3c020041 	lui	v0,0x41
  403d24:	8c42b068 	lw	v0,-20376(v0)
  403d28:	8c420004 	lw	v0,4(v0)
  403d2c:	10400011 	beqz	v0,403d74 <fs_sync+0x68>
  403d30:	8fbf001c 	lw	ra,28(sp)
  403d34:	00008821 	move	s1,zero
  403d38:	00008021 	move	s0,zero
  403d3c:	3c120041 	lui	s2,0x41
  403d40:	0c100b36 	jal	402cd8 <block_is_dirty>
  403d44:	02002021 	move	a0,s0
  403d48:	10400003 	beqz	v0,403d58 <fs_sync+0x4c>
  403d4c:	00000000 	nop
  403d50:	0c100ba7 	jal	402e9c <write_block>
  403d54:	02002021 	move	a0,s0
  403d58:	26300001 	addiu	s0,s1,1
  403d5c:	8e42b068 	lw	v0,-20376(s2)
  403d60:	8c420004 	lw	v0,4(v0)
  403d64:	0202102b 	sltu	v0,s0,v0
  403d68:	1440fff5 	bnez	v0,403d40 <fs_sync+0x34>
  403d6c:	02008821 	move	s1,s0
  403d70:	8fbf001c 	lw	ra,28(sp)
  403d74:	8fb20018 	lw	s2,24(sp)
  403d78:	8fb10014 	lw	s1,20(sp)
  403d7c:	8fb00010 	lw	s0,16(sp)
  403d80:	03e00008 	jr	ra
  403d84:	27bd0020 	addiu	sp,sp,32

00403d88 <file_close>:
  403d88:	27bdffe8 	addiu	sp,sp,-24
  403d8c:	afbf0014 	sw	ra,20(sp)
  403d90:	afb00010 	sw	s0,16(sp)
  403d94:	0c100f22 	jal	403c88 <file_flush>
  403d98:	00808021 	move	s0,a0
  403d9c:	8e0400b4 	lw	a0,180(s0)
  403da0:	10800004 	beqz	a0,403db4 <file_close+0x2c>
  403da4:	8fbf0014 	lw	ra,20(sp)
  403da8:	0c100f22 	jal	403c88 <file_flush>
  403dac:	00000000 	nop
  403db0:	8fbf0014 	lw	ra,20(sp)
  403db4:	8fb00010 	lw	s0,16(sp)
  403db8:	03e00008 	jr	ra
  403dbc:	27bd0018 	addiu	sp,sp,24

00403dc0 <file_remove>:
  403dc0:	27bdffe0 	addiu	sp,sp,-32
  403dc4:	afbf0018 	sw	ra,24(sp)
  403dc8:	00002821 	move	a1,zero
  403dcc:	27a60010 	addiu	a2,sp,16
  403dd0:	0c100e64 	jal	403990 <walk_path>
  403dd4:	00003821 	move	a3,zero
  403dd8:	0440000e 	bltz	v0,403e14 <file_remove+0x54>
  403ddc:	8fa40010 	lw	a0,16(sp)
  403de0:	0c100ed9 	jal	403b64 <file_truncate>
  403de4:	00002821 	move	a1,zero
  403de8:	8fa20010 	lw	v0,16(sp)
  403dec:	a0400000 	sb	zero,0(v0)
  403df0:	0c100f22 	jal	403c88 <file_flush>
  403df4:	8fa40010 	lw	a0,16(sp)
  403df8:	8fa20010 	lw	v0,16(sp)
  403dfc:	8c4400b4 	lw	a0,180(v0)
  403e00:	10800004 	beqz	a0,403e14 <file_remove+0x54>
  403e04:	00001021 	move	v0,zero
  403e08:	0c100f22 	jal	403c88 <file_flush>
  403e0c:	00000000 	nop
  403e10:	00001021 	move	v0,zero
  403e14:	8fbf0018 	lw	ra,24(sp)
  403e18:	03e00008 	jr	ra
  403e1c:	27bd0020 	addiu	sp,sp,32

00403e20 <ide_read>:
  403e20:	27bdffd0 	addiu	sp,sp,-48
  403e24:	afbf002c 	sw	ra,44(sp)
  403e28:	afb60028 	sw	s6,40(sp)
  403e2c:	afb50024 	sw	s5,36(sp)
  403e30:	afb40020 	sw	s4,32(sp)
  403e34:	afb3001c 	sw	s3,28(sp)
  403e38:	afb20018 	sw	s2,24(sp)
  403e3c:	afb10014 	sw	s1,20(sp)
  403e40:	afb00010 	sw	s0,16(sp)
  403e44:	00c0b021 	move	s6,a2
  403e48:	00058240 	sll	s0,a1,0x9
  403e4c:	00073a40 	sll	a3,a3,0x9
  403e50:	00f09021 	addu	s2,a3,s0
  403e54:	0212102a 	slt	v0,s0,s2
  403e58:	1040001b 	beqz	v0,403ec8 <ide_read+0xa8>
  403e5c:	02009821 	move	s3,s0
  403e60:	00008821 	move	s1,zero
  403e64:	3c150041 	lui	s5,0x41
  403e68:	3c149300 	lui	s4,0x9300
  403e6c:	26a4adc0 	addiu	a0,s5,-21056
  403e70:	0c10021d 	jal	400874 <writef>
  403e74:	02002821 	move	a1,s0
  403e78:	0c100ff8 	jal	403fe0 <read_sector>
  403e7c:	02002021 	move	a0,s0
  403e80:	1040000b 	beqz	v0,403eb0 <ide_read+0x90>
  403e84:	36844000 	ori	a0,s4,0x4000
  403e88:	02d12821 	addu	a1,s6,s1
  403e8c:	0c10047c 	jal	4011f0 <user_bcopy>
  403e90:	24060200 	li	a2,512
  403e94:	26310200 	addiu	s1,s1,512
  403e98:	02718021 	addu	s0,s3,s1
  403e9c:	0212102a 	slt	v0,s0,s2
  403ea0:	10400009 	beqz	v0,403ec8 <ide_read+0xa8>
  403ea4:	26a4adc0 	addiu	a0,s5,-21056
  403ea8:	1000fff1 	b	403e70 <ide_read+0x50>
  403eac:	00000000 	nop
  403eb0:	3c040041 	lui	a0,0x41
  403eb4:	2484ade0 	addiu	a0,a0,-21024
  403eb8:	2405001d 	li	a1,29
  403ebc:	3c060041 	lui	a2,0x41
  403ec0:	0c10022c 	jal	4008b0 <_user_panic>
  403ec4:	24c6ade8 	addiu	a2,a2,-21016
  403ec8:	8fbf002c 	lw	ra,44(sp)
  403ecc:	8fb60028 	lw	s6,40(sp)
  403ed0:	8fb50024 	lw	s5,36(sp)
  403ed4:	8fb40020 	lw	s4,32(sp)
  403ed8:	8fb3001c 	lw	s3,28(sp)
  403edc:	8fb20018 	lw	s2,24(sp)
  403ee0:	8fb10014 	lw	s1,20(sp)
  403ee4:	8fb00010 	lw	s0,16(sp)
  403ee8:	03e00008 	jr	ra
  403eec:	27bd0030 	addiu	sp,sp,48

00403ef0 <ide_write>:
  403ef0:	27bdffc8 	addiu	sp,sp,-56
  403ef4:	afbf0030 	sw	ra,48(sp)
  403ef8:	afb7002c 	sw	s7,44(sp)
  403efc:	afb60028 	sw	s6,40(sp)
  403f00:	afb50024 	sw	s5,36(sp)
  403f04:	afb40020 	sw	s4,32(sp)
  403f08:	afb3001c 	sw	s3,28(sp)
  403f0c:	afb20018 	sw	s2,24(sp)
  403f10:	afb10014 	sw	s1,20(sp)
  403f14:	afb00010 	sw	s0,16(sp)
  403f18:	00c0a821 	move	s5,a2
  403f1c:	00059240 	sll	s2,a1,0x9
  403f20:	00073a40 	sll	a3,a3,0x9
  403f24:	00f29821 	addu	s3,a3,s2
  403f28:	0253102a 	slt	v0,s2,s3
  403f2c:	1040001e 	beqz	v0,403fa8 <ide_write+0xb8>
  403f30:	0240a021 	move	s4,s2
  403f34:	02408021 	move	s0,s2
  403f38:	00008821 	move	s1,zero
  403f3c:	3c170041 	lui	s7,0x41
  403f40:	3c169300 	lui	s6,0x9300
  403f44:	26e4adf8 	addiu	a0,s7,-21000
  403f48:	02802821 	move	a1,s4
  403f4c:	02203021 	move	a2,s1
  403f50:	0c10021d 	jal	400874 <writef>
  403f54:	02a03821 	move	a3,s5
  403f58:	02b12021 	addu	a0,s5,s1
  403f5c:	36c54000 	ori	a1,s6,0x4000
  403f60:	0c10047c 	jal	4011f0 <user_bcopy>
  403f64:	24060200 	li	a2,512
  403f68:	0c101005 	jal	404014 <write_sector>
  403f6c:	02002021 	move	a0,s0
  403f70:	10400007 	beqz	v0,403f90 <ide_write+0xa0>
  403f74:	26310200 	addiu	s1,s1,512
  403f78:	02518021 	addu	s0,s2,s1
  403f7c:	0213102a 	slt	v0,s0,s3
  403f80:	10400009 	beqz	v0,403fa8 <ide_write+0xb8>
  403f84:	26e4adf8 	addiu	a0,s7,-21000
  403f88:	1000fff0 	b	403f4c <ide_write+0x5c>
  403f8c:	02802821 	move	a1,s4
  403f90:	3c040041 	lui	a0,0x41
  403f94:	2484ade0 	addiu	a0,a0,-21024
  403f98:	24050031 	li	a1,49
  403f9c:	3c060041 	lui	a2,0x41
  403fa0:	0c10022c 	jal	4008b0 <_user_panic>
  403fa4:	24c6ade8 	addiu	a2,a2,-21016
  403fa8:	8fbf0030 	lw	ra,48(sp)
  403fac:	8fb7002c 	lw	s7,44(sp)
  403fb0:	8fb60028 	lw	s6,40(sp)
  403fb4:	8fb50024 	lw	s5,36(sp)
  403fb8:	8fb40020 	lw	s4,32(sp)
  403fbc:	8fb3001c 	lw	s3,28(sp)
  403fc0:	8fb20018 	lw	s2,24(sp)
  403fc4:	8fb10014 	lw	s1,20(sp)
  403fc8:	8fb00010 	lw	s0,16(sp)
  403fcc:	03e00008 	jr	ra
  403fd0:	27bd0038 	addiu	sp,sp,56
	...

00403fe0 <read_sector>:
  403fe0:	3c019300 	lui	at,0x9300
  403fe4:	ac240000 	sw	a0,0(at)
  403fe8:	24080000 	li	t0,0
  403fec:	3c019300 	lui	at,0x9300
  403ff0:	ac280010 	sw	t0,16(at)
  403ff4:	24080000 	li	t0,0
  403ff8:	3c019300 	lui	at,0x9300
  403ffc:	a0280020 	sb	t0,32(at)
  404000:	3c029300 	lui	v0,0x9300
  404004:	8c420030 	lw	v0,48(v0)
  404008:	03e00008 	jr	ra
  40400c:	00000000 	nop
  404010:	00000000 	nop

00404014 <write_sector>:
  404014:	3c019300 	lui	at,0x9300
  404018:	ac240000 	sw	a0,0(at)
  40401c:	24080000 	li	t0,0
  404020:	3c019300 	lui	at,0x9300
  404024:	ac280010 	sw	t0,16(at)
  404028:	24080001 	li	t0,1
  40402c:	3c019300 	lui	at,0x9300
  404030:	a0280020 	sb	t0,32(at)
  404034:	3c029300 	lui	v0,0x9300
  404038:	03e00008 	jr	ra
  40403c:	8c420030 	lw	v0,48(v0)
	...

00404050 <strecmp>:
  404050:	10000008 	b	404074 <strecmp+0x24>
  404054:	80a30000 	lb	v1,0(a1)
  404058:	80820000 	lb	v0,0(a0)
  40405c:	24840001 	addiu	a0,a0,1
  404060:	10620003 	beq	v1,v0,404070 <strecmp+0x20>
  404064:	24a50001 	addiu	a1,a1,1
  404068:	03e00008 	jr	ra
  40406c:	24020001 	li	v0,1
  404070:	80a30000 	lb	v1,0(a1)
  404074:	1460fff8 	bnez	v1,404058 <strecmp+0x8>
  404078:	00001021 	move	v0,zero
  40407c:	03e00008 	jr	ra
  404080:	00000000 	nop

00404084 <fs_test>:
  404084:	27bdffe0 	addiu	sp,sp,-32
  404088:	afbf001c 	sw	ra,28(sp)
  40408c:	afb00018 	sw	s0,24(sp)
  404090:	00002021 	move	a0,zero
  404094:	24051000 	li	a1,4096
  404098:	0c1005c3 	jal	40170c <syscall_mem_alloc>
  40409c:	24060600 	li	a2,1536
  4040a0:	04410008 	bgez	v0,4040c4 <fs_test+0x40>
  4040a4:	24051000 	li	a1,4096
  4040a8:	3c040041 	lui	a0,0x41
  4040ac:	2484ae50 	addiu	a0,a0,-20912
  4040b0:	24050019 	li	a1,25
  4040b4:	3c060041 	lui	a2,0x41
  4040b8:	24c6ae58 	addiu	a2,a2,-20904
  4040bc:	0c10022c 	jal	4008b0 <_user_panic>
  4040c0:	00403821 	move	a3,v0
  4040c4:	3c020041 	lui	v0,0x41
  4040c8:	8c44b064 	lw	a0,-20380(v0)
  4040cc:	0c10047c 	jal	4011f0 <user_bcopy>
  4040d0:	24061000 	li	a2,4096
  4040d4:	0c100c60 	jal	403180 <alloc_block>
  4040d8:	00000000 	nop
  4040dc:	04410007 	bgez	v0,4040fc <fs_test+0x78>
  4040e0:	00403821 	move	a3,v0
  4040e4:	3c040041 	lui	a0,0x41
  4040e8:	2484ae50 	addiu	a0,a0,-20912
  4040ec:	2405001e 	li	a1,30
  4040f0:	3c060041 	lui	a2,0x41
  4040f4:	0c10022c 	jal	4008b0 <_user_panic>
  4040f8:	24c6ae70 	addiu	a2,a2,-20880
  4040fc:	04e10003 	bgez	a3,40410c <fs_test+0x88>
  404100:	00021143 	sra	v0,v0,0x5
  404104:	24e2001f 	addiu	v0,a3,31
  404108:	00021143 	sra	v0,v0,0x5
  40410c:	00021880 	sll	v1,v0,0x2
  404110:	3c028000 	lui	v0,0x8000
  404114:	3442001f 	ori	v0,v0,0x1f
  404118:	00e23824 	and	a3,a3,v0
  40411c:	04e10005 	bgez	a3,404134 <fs_test+0xb0>
  404120:	8c641000 	lw	a0,4096(v1)
  404124:	24e7ffff 	addiu	a3,a3,-1
  404128:	2402ffe0 	li	v0,-32
  40412c:	00e23825 	or	a3,a3,v0
  404130:	24e70001 	addiu	a3,a3,1
  404134:	24020001 	li	v0,1
  404138:	00e23804 	sllv	a3,v0,a3
  40413c:	00871024 	and	v0,a0,a3
  404140:	14400009 	bnez	v0,404168 <fs_test+0xe4>
  404144:	3c020041 	lui	v0,0x41
  404148:	3c040041 	lui	a0,0x41
  40414c:	2484ae50 	addiu	a0,a0,-20912
  404150:	24050020 	li	a1,32
  404154:	3c060041 	lui	a2,0x41
  404158:	24c6ab5c 	addiu	a2,a2,-21668
  40415c:	3c070041 	lui	a3,0x41
  404160:	0c10022c 	jal	4008b0 <_user_panic>
  404164:	24e7ae80 	addiu	a3,a3,-20864
  404168:	8c42b064 	lw	v0,-20380(v0)
  40416c:	00621021 	addu	v0,v1,v0
  404170:	8c420000 	lw	v0,0(v0)
  404174:	00e21024 	and	v0,a3,v0
  404178:	10400008 	beqz	v0,40419c <fs_test+0x118>
  40417c:	24050022 	li	a1,34
  404180:	3c040041 	lui	a0,0x41
  404184:	2484ae50 	addiu	a0,a0,-20912
  404188:	3c060041 	lui	a2,0x41
  40418c:	24c6ab5c 	addiu	a2,a2,-21668
  404190:	3c070041 	lui	a3,0x41
  404194:	0c10022c 	jal	4008b0 <_user_panic>
  404198:	24e7ae98 	addiu	a3,a3,-20840
  40419c:	3c040041 	lui	a0,0x41
  4041a0:	0c10021d 	jal	400874 <writef>
  4041a4:	2484aeb4 	addiu	a0,a0,-20812
  4041a8:	3c040041 	lui	a0,0x41
  4041ac:	2484aecc 	addiu	a0,a0,-20788
  4041b0:	0c100ea6 	jal	403a98 <file_open>
  4041b4:	27a50010 	addiu	a1,sp,16
  4041b8:	0441000a 	bgez	v0,4041e4 <fs_test+0x160>
  4041bc:	00403821 	move	a3,v0
  4041c0:	2402fff7 	li	v0,-9
  4041c4:	10e2000f 	beq	a3,v0,404204 <fs_test+0x180>
  4041c8:	3c040041 	lui	a0,0x41
  4041cc:	3c040041 	lui	a0,0x41
  4041d0:	2484ae50 	addiu	a0,a0,-20912
  4041d4:	24050026 	li	a1,38
  4041d8:	3c060041 	lui	a2,0x41
  4041dc:	0c10022c 	jal	4008b0 <_user_panic>
  4041e0:	24c6aed8 	addiu	a2,a2,-20776
  4041e4:	14400007 	bnez	v0,404204 <fs_test+0x180>
  4041e8:	3c040041 	lui	a0,0x41
  4041ec:	3c040041 	lui	a0,0x41
  4041f0:	2484ae50 	addiu	a0,a0,-20912
  4041f4:	24050028 	li	a1,40
  4041f8:	3c060041 	lui	a2,0x41
  4041fc:	0c10022c 	jal	4008b0 <_user_panic>
  404200:	24c6aef4 	addiu	a2,a2,-20748
  404204:	2484af14 	addiu	a0,a0,-20716
  404208:	0c100ea6 	jal	403a98 <file_open>
  40420c:	27a50010 	addiu	a1,sp,16
  404210:	04410007 	bgez	v0,404230 <fs_test+0x1ac>
  404214:	2405002a 	li	a1,42
  404218:	3c040041 	lui	a0,0x41
  40421c:	2484ae50 	addiu	a0,a0,-20912
  404220:	3c060041 	lui	a2,0x41
  404224:	24c6af20 	addiu	a2,a2,-20704
  404228:	0c10022c 	jal	4008b0 <_user_panic>
  40422c:	00403821 	move	a3,v0
  404230:	3c040041 	lui	a0,0x41
  404234:	0c10021d 	jal	400874 <writef>
  404238:	2484af38 	addiu	a0,a0,-20680
  40423c:	8fa40010 	lw	a0,16(sp)
  404240:	00002821 	move	a1,zero
  404244:	0c100dd0 	jal	403740 <file_get_block>
  404248:	27a60014 	addiu	a2,sp,20
  40424c:	04410008 	bgez	v0,404270 <fs_test+0x1ec>
  404250:	8fa40014 	lw	a0,20(sp)
  404254:	3c040041 	lui	a0,0x41
  404258:	2484ae50 	addiu	a0,a0,-20912
  40425c:	2405002e 	li	a1,46
  404260:	3c060041 	lui	a2,0x41
  404264:	24c6af4c 	addiu	a2,a2,-20660
  404268:	0c10022c 	jal	4008b0 <_user_panic>
  40426c:	00403821 	move	a3,v0
  404270:	3c020041 	lui	v0,0x41
  404274:	0c101014 	jal	404050 <strecmp>
  404278:	8c45b058 	lw	a1,-20392(v0)
  40427c:	10400006 	beqz	v0,404298 <fs_test+0x214>
  404280:	24050030 	li	a1,48
  404284:	3c040041 	lui	a0,0x41
  404288:	2484ae50 	addiu	a0,a0,-20912
  40428c:	3c060041 	lui	a2,0x41
  404290:	0c10022c 	jal	4008b0 <_user_panic>
  404294:	24c6af60 	addiu	a2,a2,-20640
  404298:	3c040041 	lui	a0,0x41
  40429c:	0c10021d 	jal	400874 <writef>
  4042a0:	2484af84 	addiu	a0,a0,-20604
  4042a4:	8fa30014 	lw	v1,20(sp)
  4042a8:	90620000 	lbu	v0,0(v1)
  4042ac:	00021600 	sll	v0,v0,0x18
  4042b0:	00021603 	sra	v0,v0,0x18
  4042b4:	a0620000 	sb	v0,0(v1)
  4042b8:	0c100f22 	jal	403c88 <file_flush>
  4042bc:	8fa40010 	lw	a0,16(sp)
  4042c0:	3c040041 	lui	a0,0x41
  4042c4:	0c10021d 	jal	400874 <writef>
  4042c8:	2484af9c 	addiu	a0,a0,-20580
  4042cc:	8fa40010 	lw	a0,16(sp)
  4042d0:	0c100f0b 	jal	403c2c <file_set_size>
  4042d4:	00002821 	move	a1,zero
  4042d8:	04410007 	bgez	v0,4042f8 <fs_test+0x274>
  4042dc:	3c040041 	lui	a0,0x41
  4042e0:	2484ae50 	addiu	a0,a0,-20912
  4042e4:	2405003a 	li	a1,58
  4042e8:	3c060041 	lui	a2,0x41
  4042ec:	24c6afb0 	addiu	a2,a2,-20560
  4042f0:	0c10022c 	jal	4008b0 <_user_panic>
  4042f4:	00403821 	move	a3,v0
  4042f8:	8fa20010 	lw	v0,16(sp)
  4042fc:	8c420088 	lw	v0,136(v0)
  404300:	10400008 	beqz	v0,404324 <fs_test+0x2a0>
  404304:	2405003b 	li	a1,59
  404308:	3c040041 	lui	a0,0x41
  40430c:	2484ae50 	addiu	a0,a0,-20912
  404310:	3c060041 	lui	a2,0x41
  404314:	24c6ab5c 	addiu	a2,a2,-21668
  404318:	3c070041 	lui	a3,0x41
  40431c:	0c10022c 	jal	4008b0 <_user_panic>
  404320:	24e7afc4 	addiu	a3,a3,-20540
  404324:	3c040041 	lui	a0,0x41
  404328:	0c10021d 	jal	400874 <writef>
  40432c:	2484afd8 	addiu	a0,a0,-20520
  404330:	8fb00010 	lw	s0,16(sp)
  404334:	3c020041 	lui	v0,0x41
  404338:	0c100684 	jal	401a10 <strlen>
  40433c:	8c44b058 	lw	a0,-20392(v0)
  404340:	02002021 	move	a0,s0
  404344:	0c100f0b 	jal	403c2c <file_set_size>
  404348:	00402821 	move	a1,v0
  40434c:	04410008 	bgez	v0,404370 <fs_test+0x2ec>
  404350:	8fa40010 	lw	a0,16(sp)
  404354:	3c040041 	lui	a0,0x41
  404358:	2484ae50 	addiu	a0,a0,-20912
  40435c:	24050040 	li	a1,64
  404360:	3c060041 	lui	a2,0x41
  404364:	24c6aff0 	addiu	a2,a2,-20496
  404368:	0c10022c 	jal	4008b0 <_user_panic>
  40436c:	00403821 	move	a3,v0
  404370:	00002821 	move	a1,zero
  404374:	0c100dd0 	jal	403740 <file_get_block>
  404378:	27a60014 	addiu	a2,sp,20
  40437c:	04410007 	bgez	v0,40439c <fs_test+0x318>
  404380:	24050043 	li	a1,67
  404384:	3c040041 	lui	a0,0x41
  404388:	2484ae50 	addiu	a0,a0,-20912
  40438c:	3c060041 	lui	a2,0x41
  404390:	24c6b004 	addiu	a2,a2,-20476
  404394:	0c10022c 	jal	4008b0 <_user_panic>
  404398:	00403821 	move	a3,v0
  40439c:	8fa40014 	lw	a0,20(sp)
  4043a0:	3c020041 	lui	v0,0x41
  4043a4:	0c10068d 	jal	401a34 <strcpy>
  4043a8:	8c45b058 	lw	a1,-20392(v0)
  4043ac:	0c100f22 	jal	403c88 <file_flush>
  4043b0:	8fa40010 	lw	a0,16(sp)
  4043b4:	0c100f62 	jal	403d88 <file_close>
  4043b8:	8fa40010 	lw	a0,16(sp)
  4043bc:	3c040041 	lui	a0,0x41
  4043c0:	0c10021d 	jal	400874 <writef>
  4043c4:	2484b01c 	addiu	a0,a0,-20452
  4043c8:	8fbf001c 	lw	ra,28(sp)
  4043cc:	8fb00018 	lw	s0,24(sp)
  4043d0:	03e00008 	jr	ra
  4043d4:	27bd0020 	addiu	sp,sp,32
	...
Disassembly of section .reginfo:

004043e0 <.reginfo>:
  4043e0:	f7fffffe 	sdc1	$f31,-2(ra)
	...
Disassembly of section .data:

00404400 <fsipcbuf>:
	...

00405400 <fdtab>:
	...

00406400 <envs>:
  406400:	7f400000 	0x7f400000

00406404 <pages>:
  406404:	7f800000 	0x7f800000

00406408 <vpt>:
  406408:	7fc00000 	0x7fc00000

0040640c <vpd>:
  40640c:	7fdff000 	0x7fdff000

00406410 <__pgfault_handler>:
	...

00406420 <opentab>:
	...
  406428:	00000001 	movf	zero,zero,$fcc0
	...
  40a420:	00400768 	0x400768
  40a424:	004006c8 	0x4006c8
  40a428:	004006e0 	0x4006e0
  40a42c:	004006f8 	0x4006f8
  40a430:	00400710 	0x400710
  40a434:	00400728 	0x400728
  40a438:	00400740 	0x400740
  40a43c:	00400758 	0x400758

0040a440 <user_theFatalMsg>:
  40a440:	66617461 	0x66617461
  40a444:	6c206572 	0x6c206572
  40a448:	726f7220 	0x726f7220
  40a44c:	696e2075 	0x696e2075
  40a450:	7365725f 	0x7365725f
  40a454:	6c705f50 	0x6c705f50
  40a458:	72696e74 	0x72696e74
  40a45c:	21000000 	addi	zero,t0,0
  40a460:	00000000 	nop
  40a464:	00400e28 	0x400e28
  40a468:	00400e30 	tge	v0,zero,0x38
  40a46c:	00400e30 	tge	v0,zero,0x38
  40a470:	00400e30 	tge	v0,zero,0x38
  40a474:	00400e30 	tge	v0,zero,0x38
  40a478:	00400e30 	tge	v0,zero,0x38
  40a47c:	00400e30 	tge	v0,zero,0x38
  40a480:	00400e30 	tge	v0,zero,0x38
  40a484:	00400e30 	tge	v0,zero,0x38
  40a488:	00400e30 	tge	v0,zero,0x38
  40a48c:	00400e30 	tge	v0,zero,0x38
  40a490:	00400e30 	tge	v0,zero,0x38
  40a494:	00400e30 	tge	v0,zero,0x38
  40a498:	00400e30 	tge	v0,zero,0x38
  40a49c:	00400e30 	tge	v0,zero,0x38
  40a4a0:	00400e30 	tge	v0,zero,0x38
  40a4a4:	00400e30 	tge	v0,zero,0x38
  40a4a8:	00400e30 	tge	v0,zero,0x38
  40a4ac:	00400e30 	tge	v0,zero,0x38
  40a4b0:	00400e30 	tge	v0,zero,0x38
  40a4b4:	00400e30 	tge	v0,zero,0x38
  40a4b8:	00400e30 	tge	v0,zero,0x38
  40a4bc:	00400e30 	tge	v0,zero,0x38
  40a4c0:	00400e30 	tge	v0,zero,0x38
  40a4c4:	00400e30 	tge	v0,zero,0x38
  40a4c8:	00400e30 	tge	v0,zero,0x38
  40a4cc:	00400e30 	tge	v0,zero,0x38
  40a4d0:	00400e30 	tge	v0,zero,0x38
  40a4d4:	00400e30 	tge	v0,zero,0x38
  40a4d8:	00400e30 	tge	v0,zero,0x38
  40a4dc:	00400e30 	tge	v0,zero,0x38
  40a4e0:	00400e30 	tge	v0,zero,0x38
  40a4e4:	00400e30 	tge	v0,zero,0x38
  40a4e8:	00400e30 	tge	v0,zero,0x38
  40a4ec:	00400e30 	tge	v0,zero,0x38
  40a4f0:	00400e30 	tge	v0,zero,0x38
  40a4f4:	00400e30 	tge	v0,zero,0x38
  40a4f8:	00400e30 	tge	v0,zero,0x38
  40a4fc:	00400e30 	tge	v0,zero,0x38
  40a500:	00400e30 	tge	v0,zero,0x38
  40a504:	00400e30 	tge	v0,zero,0x38
  40a508:	00400e30 	tge	v0,zero,0x38
  40a50c:	00400e30 	tge	v0,zero,0x38
  40a510:	00400e30 	tge	v0,zero,0x38
  40a514:	00400e30 	tge	v0,zero,0x38
  40a518:	00400e30 	tge	v0,zero,0x38
  40a51c:	00400e30 	tge	v0,zero,0x38
  40a520:	00400e30 	tge	v0,zero,0x38
  40a524:	00400e30 	tge	v0,zero,0x38
  40a528:	00400e30 	tge	v0,zero,0x38
  40a52c:	00400e30 	tge	v0,zero,0x38
  40a530:	00400e30 	tge	v0,zero,0x38
  40a534:	00400e30 	tge	v0,zero,0x38
  40a538:	00400e30 	tge	v0,zero,0x38
  40a53c:	00400e30 	tge	v0,zero,0x38
  40a540:	00400e30 	tge	v0,zero,0x38
  40a544:	00400e30 	tge	v0,zero,0x38
  40a548:	00400e30 	tge	v0,zero,0x38
  40a54c:	00400e30 	tge	v0,zero,0x38
  40a550:	00400e30 	tge	v0,zero,0x38
  40a554:	00400e30 	tge	v0,zero,0x38
  40a558:	00400e30 	tge	v0,zero,0x38
  40a55c:	00400e30 	tge	v0,zero,0x38
  40a560:	00400e30 	tge	v0,zero,0x38
  40a564:	00400e30 	tge	v0,zero,0x38
  40a568:	00400e30 	tge	v0,zero,0x38
  40a56c:	00400e30 	tge	v0,zero,0x38
  40a570:	00400e30 	tge	v0,zero,0x38
  40a574:	00400b38 	0x400b38
  40a578:	00400e30 	tge	v0,zero,0x38
  40a57c:	00400e30 	tge	v0,zero,0x38
  40a580:	00400e30 	tge	v0,zero,0x38
  40a584:	00400e30 	tge	v0,zero,0x38
  40a588:	00400e30 	tge	v0,zero,0x38
  40a58c:	00400e30 	tge	v0,zero,0x38
  40a590:	00400e30 	tge	v0,zero,0x38
  40a594:	00400e30 	tge	v0,zero,0x38
  40a598:	00400e30 	tge	v0,zero,0x38
  40a59c:	00400e30 	tge	v0,zero,0x38
  40a5a0:	00400bbc 	0x400bbc
  40a5a4:	00400e30 	tge	v0,zero,0x38
  40a5a8:	00400e30 	tge	v0,zero,0x38
  40a5ac:	00400e30 	tge	v0,zero,0x38
  40a5b0:	00400e30 	tge	v0,zero,0x38
  40a5b4:	00400e30 	tge	v0,zero,0x38
  40a5b8:	00400c30 	tge	v0,zero,0x30
  40a5bc:	00400e30 	tge	v0,zero,0x38
  40a5c0:	00400e30 	tge	v0,zero,0x38
  40a5c4:	00400d18 	0x400d18
  40a5c8:	00400e30 	tge	v0,zero,0x38
  40a5cc:	00400e30 	tge	v0,zero,0x38
  40a5d0:	00400e30 	tge	v0,zero,0x38
  40a5d4:	00400e30 	tge	v0,zero,0x38
  40a5d8:	00400e30 	tge	v0,zero,0x38
  40a5dc:	00400e30 	tge	v0,zero,0x38
  40a5e0:	00400e30 	tge	v0,zero,0x38
  40a5e4:	00400e30 	tge	v0,zero,0x38
  40a5e8:	00400e30 	tge	v0,zero,0x38
  40a5ec:	00400ac4 	0x400ac4
  40a5f0:	00400d90 	0x400d90
  40a5f4:	00400b38 	0x400b38
  40a5f8:	00400e30 	tge	v0,zero,0x38
  40a5fc:	00400e30 	tge	v0,zero,0x38
  40a600:	00400e30 	tge	v0,zero,0x38
  40a604:	00400e30 	tge	v0,zero,0x38
  40a608:	00400e30 	tge	v0,zero,0x38
  40a60c:	00400e30 	tge	v0,zero,0x38
  40a610:	00400e30 	tge	v0,zero,0x38
  40a614:	00400e30 	tge	v0,zero,0x38
  40a618:	00400e30 	tge	v0,zero,0x38
  40a61c:	00400e30 	tge	v0,zero,0x38
  40a620:	00400bbc 	0x400bbc
  40a624:	00400e30 	tge	v0,zero,0x38
  40a628:	00400e30 	tge	v0,zero,0x38
  40a62c:	00400e30 	tge	v0,zero,0x38
  40a630:	00400ddc 	0x400ddc
  40a634:	00400e30 	tge	v0,zero,0x38
  40a638:	00400c30 	tge	v0,zero,0x30
  40a63c:	00400e30 	tge	v0,zero,0x38
  40a640:	00400e30 	tge	v0,zero,0x38
  40a644:	00400ca4 	0x400ca4
	...
  40a650:	496e7661 	0x496e7661
  40a654:	6c696420 	0x6c696420
  40a658:	72657175 	0x72657175
  40a65c:	65737420 	0x65737420
  40a660:	66726f6d 	0x66726f6d
  40a664:	20253038 	addi	a1,at,12344
  40a668:	783a206e 	0x783a206e
  40a66c:	6f206172 	0x6f206172
  40a670:	67756d65 	0x67756d65
  40a674:	6e742070 	0x6e742070
  40a678:	6167650a 	0x6167650a
  40a67c:	00000000 	nop
  40a680:	496e7661 	0x496e7661
  40a684:	6c696420 	0x6c696420
  40a688:	72657175 	0x72657175
  40a68c:	65737420 	0x65737420
  40a690:	636f6465 	0x636f6465
  40a694:	20256420 	addi	a1,at,25632
  40a698:	66726f6d 	0x66726f6d
  40a69c:	20253038 	addi	a1,at,12344
  40a6a0:	780a0000 	0x780a0000
  40a6a4:	46532069 	c1	0x532069
  40a6a8:	73207275 	0x73207275
  40a6ac:	6e6e696e 	0x6e6e696e
  40a6b0:	670a0000 	0x670a0000
  40a6b4:	46532063 	c1	0x532063
  40a6b8:	616e2064 	0x616e2064
  40a6bc:	6f20492f 	0x6f20492f
  40a6c0:	4f0a0000 	c3	0x10a0000
  40a6c4:	73657276 	0x73657276
  40a6c8:	2e630000 	sltiu	v1,s3,0
  40a6cc:	21212121 	addi	at,t1,8481
  40a6d0:	21212121 	addi	at,t1,8481
  40a6d4:	21212121 	addi	at,t1,8481
  40a6d8:	21212121 	addi	at,t1,8481
  40a6dc:	21212121 	addi	at,t1,8481
  40a6e0:	21212121 	addi	at,t1,8481
  40a6e4:	21212121 	addi	at,t1,8481
  40a6e8:	21212121 	addi	at,t1,8481
  40a6ec:	21000000 	addi	zero,t0,0
  40a6f0:	70616e69 	0x70616e69
  40a6f4:	63206174 	0x63206174
  40a6f8:	2025733a 	addi	a1,at,29498
  40a6fc:	25643a20 	addiu	a0,t3,14880
  40a700:	00000000 	nop
  40a704:	666f726b 	0x666f726b
  40a708:	2e633a70 	sltiu	v1,s3,14960
  40a70c:	67666175 	0x67666175
  40a710:	6c742829 	0x6c742829
  40a714:	3a092076 	xori	t1,s0,0x2076
  40a718:	613a2578 	0x613a2578
  40a71c:	0a000000 	j	8000000 <end+0x7bf4f90>
  40a720:	666f726b 	0x666f726b
  40a724:	2e630000 	sltiu	v1,s3,0
  40a728:	49742069 	0x49742069
  40a72c:	73206e6f 	0x73206e6f
  40a730:	74206120 	jalx	818480 <end+0x40d410>
  40a734:	636f7079 	0x636f7079
  40a738:	2d6f6e2d 	sltiu	t7,t3,28205
  40a73c:	77726974 	jalx	dc9a5d0 <end+0xd88f560>
  40a740:	65207061 	0x65207061
  40a744:	67652061 	0x67652061
  40a748:	74207661 	jalx	81d984 <end+0x412914>
  40a74c:	3a25640a 	xori	a1,s1,0x640a
  40a750:	00000000 	nop
  40a754:	666f726b 	0x666f726b
  40a758:	2e633a70 	sltiu	v1,s3,14960
  40a75c:	67666175 	0x67666175
  40a760:	6c742829 	0x6c742829
  40a764:	3a204974 	xori	zero,s1,0x4974
  40a768:	27732045 	addiu	s3,k1,8261
  40a76c:	4e44210a 	c3	0x44210a
  40a770:	00000000 	nop
  40a774:	666f726b 	0x666f726b
  40a778:	2e633a09 	sltiu	v1,s3,14857
  40a77c:	666f726b 	0x666f726b
  40a780:	20697320 	addi	t1,v1,29472
  40a784:	62656769 	0x62656769
  40a788:	6e210a00 	0x6e210a00
  40a78c:	40404040 	0x40404040
  40a790:	40404020 	0x40404020
  40a794:	49276d20 	0x49276d20
  40a798:	6368696c 	0x6368696c
  40a79c:	64204040 	0x64204040
  40a7a0:	40404040 	0x40404040
  40a7a4:	400a0000 	mfc0	t2,c0_index
  40a7a8:	666f726b 	0x666f726b
  40a7ac:	2e633a09 	sltiu	v1,s3,14857
  40a7b0:	7670643a 	jalx	9c190e8 <end+0x980e078>
  40a7b4:	25780976 	addiu	t8,t3,2422
  40a7b8:	70743a25 	0x70743a25
  40a7bc:	780a0000 	0x780a0000
  40a7c0:	693a2578 	0x693a2578
  40a7c4:	09767064 	j	5d9c190 <end+0x5991120>
  40a7c8:	5b692f50 	0x5b692f50
  40a7cc:	54453250 	bnel	v0,a1,417110 <end+0xc0a0>
  40a7d0:	545d3a25 	bnel	v0,sp,419068 <end+0xdff8>
  40a7d4:	78097670 	0x78097670
  40a7d8:	745b695d 	jalx	16da574 <end+0x12cf504>
  40a7dc:	3a25780a 	xori	a1,s1,0x780a
  40a7e0:	00000000 	nop
  40a7e4:	73797363 	0x73797363
  40a7e8:	616c6c5f 	0x616c6c5f
  40a7ec:	6d656d5f 	0x6d656d5f
  40a7f0:	616c6c6f 	0x616c6c6f
  40a7f4:	6320666f 	0x6320666f
  40a7f8:	72205558 	0x72205558
  40a7fc:	53544143 	beql	k0,s4,41ad0c <end+0xfc9c>
  40a800:	4b206973 	c2	0x1206973
  40a804:	2077726f 	addi	s7,v1,29295
  40a808:	6e670a00 	0x6e670a00
  40a80c:	73666f72 	0x73666f72
  40a810:	6b206e6f 	0x6b206e6f
  40a814:	7420696d 	jalx	81a5b4 <end+0x40f544>
  40a818:	706c656d 	0x706c656d
  40a81c:	656e7465 	0x656e7465
  40a820:	64000000 	0x64000000
  40a824:	63616e6e 	0x63616e6e
  40a828:	6f742073 	0x6f742073
  40a82c:	65742070 	0x65742070
  40a830:	67666175 	0x67666175
  40a834:	6c742068 	0x6c742068
  40a838:	616e646c 	0x616e646c
  40a83c:	65720a00 	0x65720a00
  40a840:	73797363 	0x73797363
  40a844:	616c6c5f 	0x616c6c5f
  40a848:	656e765f 	0x656e765f
  40a84c:	616c6c6f 	0x616c6c6f
  40a850:	6328293a 	0x6328293a
  40a854:	20726574 	addi	s2,v1,25972
  40a858:	75726e20 	jalx	5c9b880 <end+0x5890810>
  40a85c:	3a202578 	xori	zero,s1,0x2578
  40a860:	0a000000 	j	8000000 <end+0x7bf4f90>
  40a864:	6970632e 	0x6970632e
  40a868:	63000000 	0x63000000
  40a86c:	6572726f 	0x6572726f
  40a870:	7220696e 	0x7220696e
  40a874:	20697063 	addi	t1,v1,28771
  40a878:	5f73656e 	0x5f73656e
  40a87c:	643a2025 	0x643a2025
  40a880:	65000000 	0x65000000
  40a884:	5b253038 	0x5b253038
  40a888:	785d2075 	0x785d2075
  40a88c:	6e6b6e6f 	0x6e6b6e6f
  40a890:	776e2064 	jalx	db88190 <end+0xd77d120>
  40a894:	65766963 	0x65766963
  40a898:	65207479 	0x65207479
  40a89c:	70652025 	0x70652025
  40a8a0:	640a0000 	0x640a0000
  40a8a4:	5b253038 	0x5b253038
  40a8a8:	785d2072 	0x785d2072
  40a8ac:	65616420 	0x65616420
  40a8b0:	2564202d 	addiu	a0,t3,8237
  40a8b4:	2d206261 	sltiu	zero,t1,25185
  40a8b8:	64206d6f 	0x64206d6f
  40a8bc:	64650a00 	0x64650a00
  40a8c0:	5b253038 	0x5b253038
  40a8c4:	785d2077 	0x785d2077
  40a8c8:	72697465 	0x72697465
  40a8cc:	20256420 	addi	a1,at,25632
  40a8d0:	2d2d2062 	sltiu	t5,t1,8290
  40a8d4:	6164206d 	0x6164206d
  40a8d8:	6f64650a 	0x6f64650a
  40a8dc:	00000000 	nop
  40a8e0:	66696c65 	0x66696c65
  40a8e4:	00000000 	nop
  40a8e8:	57697468 	bnel	k1,t1,427a8c <end+0x1ca1c>
  40a8ec:	6f757420 	0x6f757420
  40a8f0:	66726565 	0x66726565
  40a8f4:	20666420 	addi	a2,v1,25632
  40a8f8:	6c656674 	0x6c656674
  40a8fc:	0a000000 	j	8000000 <end+0x7bf4f90>
  40a900:	6f70656e 	0x6f70656e
  40a904:	3a666420 	xori	a2,s3,0x6420
  40a908:	3d202578 	0x3d202578
  40a90c:	0a000000 	j	8000000 <end+0x7bf4f90>
  40a910:	63616e6e 	0x63616e6e
  40a914:	6f6e7420 	0x6f6e7420
  40a918:	6f70656e 	0x6f70656e
  40a91c:	2066696c 	addi	a2,v1,26988
  40a920:	65202573 	0x65202573
  40a924:	0a000000 	j	8000000 <end+0x7bf4f90>
  40a928:	6f70656e 	0x6f70656e
  40a92c:	3a666664 	xori	a2,s3,0x6664
  40a930:	203d2025 	addi	sp,at,8229
  40a934:	782c0973 	0x782c0973
  40a938:	697a6520 	0x697a6520
  40a93c:	3d202578 	0x3d202578
  40a940:	2c096669 	sltiu	t1,zero,26217
  40a944:	6c656964 	0x6c656964
  40a948:	3d25642c 	0x3d25642c
  40a94c:	09766120 	j	5d98480 <end+0x598d410>
  40a950:	3d25780a 	0x3d25780a
  40a954:	00000000 	nop
  40a958:	63616e6e 	0x63616e6e
  40a95c:	6f74206d 	0x6f74206d
  40a960:	61702074 	0x61702074
  40a964:	68652066 	0x68652066
  40a968:	696c652e 	0x696c652e
  40a96c:	0a000000 	j	8000000 <end+0x7bf4f90>
  40a970:	693d2578 	0x693d2578
  40a974:	2c09282a 	sltiu	t1,zero,10282
  40a978:	20767064 	addi	s6,v1,28772
  40a97c:	295b5044 	slti	k1,t2,20548
  40a980:	58282578 	0x58282578
  40a984:	295d2650 	slti	sp,t2,9808
  40a988:	54455f50 	bnel	v0,a1,4226cc <end+0x1765c>
  40a98c:	3d25782c 	0x3d25782c
  40a990:	09282a20 	j	4a0a880 <end+0x45ff810>
  40a994:	76707429 	jalx	9c1d0a4 <end+0x9812034>
  40a998:	5b56504e 	0x5b56504e
  40a99c:	28257829 	slti	a1,at,30761
  40a9a0:	5d265054 	0x5d265054
  40a9a4:	455f503d 	0x455f503d
  40a9a8:	25780a00 	addiu	t8,t3,2560
  40a9ac:	63616e6e 	0x63616e6e
  40a9b0:	6f742063 	0x6f742063
  40a9b4:	6c6f7365 	0x6c6f7365
  40a9b8:	20746865 	addi	s4,v1,26725
  40a9bc:	2066696c 	addi	a2,v1,26988
  40a9c0:	650a0000 	0x650a0000
  40a9c4:	63616e6e 	0x63616e6e
  40a9c8:	6f6e7420 	0x6f6e7420
  40a9cc:	756e6d61 	jalx	5b9b584 <end+0x5790514>
  40a9d0:	70207468 	0x70207468
  40a9d4:	65206669 	0x65206669
  40a9d8:	6c652e0a 	0x6c652e0a
  40a9dc:	00000000 	nop
  40a9e0:	6f666673 	0x6f666673
  40a9e4:	65743d25 	0x65743d25
  40a9e8:	782c2020 	0x782c2020
  40a9ec:	20202020 	addi	zero,at,8224
  40a9f0:	76613d25 	jalx	984f494 <end+0x9444424>
  40a9f4:	782c2020 	0x782c2020
  40a9f8:	282a2076 	slti	t2,at,8310
  40a9fc:	7064295b 	0x7064295b
  40aa00:	50445828 	beql	v0,a0,420aa4 <end+0x15a34>
  40aa04:	7661295d 	jalx	984a574 <end+0x943f504>
  40aa08:	26505445 	addiu	s0,s2,21573
  40aa0c:	5f503d25 	0x5f503d25
  40aa10:	782c2020 	0x782c2020
  40aa14:	282a2076 	slti	t2,at,8310
  40aa18:	7074295b 	0x7074295b
  40aa1c:	56504e28 	bnel	s2,s0,41e2c0 <end+0x13250>
  40aa20:	7661295d 	jalx	984a574 <end+0x943f504>
  40aa24:	26505445 	addiu	s0,s2,21573
  40aa28:	5f503d25 	0x5f503d25
  40aa2c:	780a0000 	0x780a0000
  40aa30:	66696c65 	0x66696c65
  40aa34:	2e630000 	sltiu	v1,s3,0
  40aa38:	66747275 	0x66747275
  40aa3c:	6e636174 	0x6e636174
  40aa40:	653a2073 	0x653a2073
  40aa44:	79736361 	0x79736361
  40aa48:	6c6c5f6d 	0x6c6c5f6d
  40aa4c:	656d5f75 	0x656d5f75
  40aa50:	6e6d6170 	0x6e6d6170
  40aa54:	20253038 	addi	a1,at,12344
  40aa58:	783a2025 	0x783a2025
  40aa5c:	65000000 	0x65000000
  40aa60:	66732e63 	0x66732e63
  40aa64:	00000000 	nop
  40aa68:	62616420 	0x62616420
  40aa6c:	626c6f63 	0x626c6f63
  40aa70:	6b206e75 	0x6b206e75
  40aa74:	6d626572 	0x6d626572
  40aa78:	20253038 	addi	a1,at,12344
  40aa7c:	7820696e 	0x7820696e
  40aa80:	20646973 	addi	a0,v1,26995
  40aa84:	6b616464 	0x6b616464
  40aa88:	72000000 	madd	s0,zero
  40aa8c:	72656164 	0x72656164
  40aa90:	696e6720 	0x696e6720
  40aa94:	6e6f6e2d 	0x6e6f6e2d
  40aa98:	65786973 	0x65786973
  40aa9c:	74656e74 	jalx	195b9d0 <end+0x1550960>
  40aaa0:	20626c6f 	addi	v0,v1,27759
  40aaa4:	636b2025 	0x636b2025
  40aaa8:	3038780a 	andi	t8,at,0x780a
  40aaac:	00000000 	nop
  40aab0:	72656164 	0x72656164
  40aab4:	696e6720 	0x696e6720
  40aab8:	66726565 	0x66726565
  40aabc:	20626c6f 	addi	v0,v1,27759
  40aac0:	636b2025 	0x636b2025
  40aac4:	3038780a 	andi	t8,at,0x780a
  40aac8:	00000000 	nop
  40aacc:	66732e63 	0x66732e63
  40aad0:	3a726561 	xori	s2,s3,0x6561
  40aad4:	645f626c 	0x645f626c
  40aad8:	6f636b28 	0x6f636b28
  40aadc:	293a2062 	slti	k0,t1,8290
  40aae0:	65666f72 	0x65666f72
  40aae4:	65206964 	0x65206964
  40aae8:	655f7265 	0x655f7265
  40aaec:	61642829 	0x61642829
  40aaf0:	20626c6f 	addi	v0,v1,27759
  40aaf4:	636b6e6f 	0x636b6e6f
  40aaf8:	3a257820 	xori	a1,s1,0x7820
  40aafc:	76613a25 	jalx	984e894 <end+0x9443824>
  40ab00:	780a0000 	0x780a0000
  40ab04:	66732e63 	0x66732e63
  40ab08:	3a726561 	xori	s2,s3,0x6561
  40ab0c:	645f626c 	0x645f626c
  40ab10:	6f636b28 	0x6f636b28
  40ab14:	293a2065 	slti	k0,t1,8293
  40ab18:	6e642021 	0x6e642021
  40ab1c:	0a000000 	j	8000000 <end+0x7bf4f90>
  40ab20:	77726974 	jalx	dc9a5d0 <end+0xd88f560>
  40ab24:	6520756e 	0x6520756e
  40ab28:	6d617070 	0x6d617070
  40ab2c:	65642062 	0x65642062
  40ab30:	6c6f636b 	0x6c6f636b
  40ab34:	20253038 	addi	a1,at,12344
  40ab38:	78000000 	0x78000000
  40ab3c:	77726974 	jalx	dc9a5d0 <end+0xd88f560>
  40ab40:	65424c4b 	0x65424c4b
  40ab44:	28293a20 	slti	t1,at,14880
  40ab48:	20626c6f 	addi	v0,v1,27759
  40ab4c:	636b6e6f 	0x636b6e6f
  40ab50:	3a257820 	xori	a1,s1,0x7820
  40ab54:	2076613a 	addi	s6,v1,24890
  40ab58:	25780a00 	addiu	t8,t3,2560
  40ab5c:	61737365 	0x61737365
  40ab60:	7274696f 	0x7274696f
  40ab64:	6e206661 	0x6e206661
  40ab68:	696c6564 	0x696c6564
  40ab6c:	3a202573 	xori	zero,s1,0x2573
  40ab70:	00000000 	nop
  40ab74:	626c6f63 	0x626c6f63
  40ab78:	6b5f6973 	0x6b5f6973
  40ab7c:	5f667265 	0x5f667265
  40ab80:	6528626c 	0x6528626c
  40ab84:	6f636b6e 	0x6f636b6e
  40ab88:	6f29207c 	0x6f29207c
  40ab8c:	7c202162 	0x7c202162
  40ab90:	6c6f636b 	0x6c6f636b
  40ab94:	5f69735f 	0x5f69735f
  40ab98:	64697274 	0x64697274
  40ab9c:	7928626c 	0x7928626c
  40aba0:	6f636b6e 	0x6f636b6e
  40aba4:	6f290000 	0x6f290000
  40aba8:	756e6d61 	jalx	5b9b584 <end+0x5790514>
  40abac:	705f626c 	0x705f626c
  40abb0:	6f636b3a 	0x6f636b3a
  40abb4:	20737973 	addi	s3,v1,31091
  40abb8:	63616c6c 	0x63616c6c
  40abbc:	5f6d656d 	0x5f6d656d
  40abc0:	5f756e6d 	0x5f756e6d
  40abc4:	61703a20 	0x61703a20
  40abc8:	25650000 	addiu	a1,t3,0
  40abcc:	21626c6f 	addi	v0,t3,27759
  40abd0:	636b5f69 	0x636b5f69
  40abd4:	735f6d61 	0x735f6d61
  40abd8:	70706564 	0x70706564
  40abdc:	28626c6f 	slti	v0,v1,27759
  40abe0:	636b6e6f 	0x636b6e6f
  40abe4:	29000000 	slti	zero,t0,0
  40abe8:	61747465 	0x61747465
  40abec:	6d707420 	0x6d707420
  40abf0:	746f2066 	jalx	1bc8198 <end+0x17bd128>
  40abf4:	72656520 	0x72656520
  40abf8:	7a65726f 	0x7a65726f
  40abfc:	20626c6f 	addi	v0,v1,27759
  40ac00:	636b0000 	0x636b0000
  40ac04:	66732e63 	0x66732e63
  40ac08:	3a726561 	xori	s2,s3,0x6561
  40ac0c:	645f7375 	0x645f7375
  40ac10:	70657228 	0x70657228
  40ac14:	2920310a 	slti	zero,t1,12554
  40ac18:	00000000 	nop
  40ac1c:	63616e6e 	0x63616e6e
  40ac20:	6f742072 	0x6f742072
  40ac24:	65616420 	0x65616420
  40ac28:	73757065 	0x73757065
  40ac2c:	72626c6f 	0x72626c6f
  40ac30:	636b3a20 	0x636b3a20
  40ac34:	25650000 	addiu	a1,t3,0
  40ac38:	66732e63 	0x66732e63
  40ac3c:	3a726561 	xori	s2,s3,0x6561
  40ac40:	645f7375 	0x645f7375
  40ac44:	70657228 	0x70657228
  40ac48:	2920320a 	slti	zero,t1,12810
  40ac4c:	00000000 	nop
  40ac50:	62616420 	0x62616420
  40ac54:	66696c65 	0x66696c65
  40ac58:	20737973 	addi	s3,v1,31091
  40ac5c:	74656d20 	jalx	195b480 <end+0x1550410>
  40ac60:	6d616769 	0x6d616769
  40ac64:	63206e75 	0x63206e75
  40ac68:	6d626572 	0x6d626572
  40ac6c:	20257820 	addi	a1,at,30752
  40ac70:	25780000 	addiu	t8,t3,0
  40ac74:	66696c65 	0x66696c65
  40ac78:	20737973 	addi	s3,v1,31091
  40ac7c:	74656d20 	jalx	195b480 <end+0x1550410>
  40ac80:	69732074 	0x69732074
  40ac84:	6f6f206c 	0x6f6f206c
  40ac88:	61726765 	0x61726765
  40ac8c:	00000000 	nop
  40ac90:	73757065 	0x73757065
  40ac94:	72626c6f 	0x72626c6f
  40ac98:	636b2069 	0x636b2069
  40ac9c:	7320676f 	0x7320676f
  40aca0:	6f640a00 	0x6f640a00
  40aca4:	21626c6f 	addi	v0,t3,27759
  40aca8:	636b5f69 	0x636b5f69
  40acac:	735f6672 	0x735f6672
  40acb0:	65652830 	0x65652830
  40acb4:	29000000 	slti	zero,t0,0
  40acb8:	21626c6f 	addi	v0,t3,27759
  40acbc:	636b5f69 	0x636b5f69
  40acc0:	735f6672 	0x735f6672
  40acc4:	65652831 	0x65652831
  40acc8:	29000000 	slti	zero,t0,0
  40accc:	21626c6f 	addi	v0,t3,27759
  40acd0:	636b5f69 	0x636b5f69
  40acd4:	735f6672 	0x735f6672
  40acd8:	65652869 	0x65652869
  40acdc:	2b322900 	slti	s2,t9,10496
  40ace0:	6269746d 	0x6269746d
  40ace4:	61700000 	0x61700000
  40ace8:	72656164 	0x72656164
  40acec:	5f626974 	0x5f626974
  40acf0:	6d617020 	0x6d617020
  40acf4:	69732067 	0x69732067
  40acf8:	6f6f640a 	0x6f6f640a
  40acfc:	00000000 	nop
  40ad00:	4f4f5053 	c3	0x14f5053
  40ad04:	210a0000 	addi	t2,t0,0
  40ad08:	626c6f63 	0x626c6f63
  40ad0c:	6b5f6973 	0x6b5f6973
  40ad10:	5f6d6170 	0x5f6d6170
  40ad14:	70656428 	0x70656428
  40ad18:	31290000 	andi	t1,t1,0x0
  40ad1c:	21626c6f 	addi	v0,t3,27759
  40ad20:	636b5f69 	0x636b5f69
  40ad24:	735f6d61 	0x735f6d61
  40ad28:	70706564 	0x70706564
  40ad2c:	28312900 	slti	s1,at,10496
  40ad30:	73747263 	0x73747263
  40ad34:	6d702828 	0x6d702828
  40ad38:	63686172 	0x63686172
  40ad3c:	2a296469 	slti	t1,s1,25705
  40ad40:	736b6164 	0x736b6164
  40ad44:	64722831 	0x64722831
  40ad48:	292c2022 	slti	t4,t1,8226
  40ad4c:	4f4f5053 	c3	0x14f5053
  40ad50:	215c6e22 	addi	gp,t2,28194
  40ad54:	29203d3d 	slti	zero,t1,15677
  40ad58:	20300000 	addi	s0,at,0
  40ad5c:	77726974 	jalx	dc9a5d0 <end+0xd88f560>
  40ad60:	655f626c 	0x655f626c
  40ad64:	6f636b20 	0x6f636b20
  40ad68:	69732067 	0x69732067
  40ad6c:	6f6f640a 	0x6f6f640a
  40ad70:	00000000 	nop
  40ad74:	626c6b20 	0x626c6b20
  40ad78:	213d2030 	addi	sp,t1,8240
  40ad7c:	00000000 	nop
  40ad80:	77616c6b 	jalx	d85b1ac <end+0xd45013c>
  40ad84:	5f706174 	0x5f706174
  40ad88:	6828293a 	0x6828293a
  40ad8c:	20646972 	addi	a0,v1,26994
  40ad90:	3a25730a 	xori	a1,s1,0x730a
  40ad94:	00000000 	nop
  40ad98:	21212121 	addi	at,t1,8481
  40ad9c:	21212121 	addi	at,t1,8481
  40ada0:	21212121 	addi	at,t1,8481
  40ada4:	21212121 	addi	at,t1,8481
  40ada8:	21212073 	addi	at,t1,8307
  40adac:	72633a25 	0x72633a25
  40adb0:	78206473 	0x78206473
  40adb4:	743a2578 	jalx	e895e0 <end+0xa7e570>
  40adb8:	206c656e 	addi	t4,v1,25966
  40adbc:	3a257800 	xori	a1,s1,0x7800
  40adc0:	6964652e 	0x6964652e
  40adc4:	633a2072 	0x633a2072
  40adc8:	6561645f 	0x6561645f
  40adcc:	73656374 	0x73656374
  40add0:	6f722829 	0x6f722829
  40add4:	206f6666 	addi	t7,v1,26214
  40add8:	7365743d 	0x7365743d
  40addc:	25780a00 	addiu	t8,t3,2560
  40ade0:	6964652e 	0x6964652e
  40ade4:	63000000 	0x63000000
  40ade8:	6469736b 	0x6469736b
  40adec:	20492f4f 	addi	t1,v0,12111
  40adf0:	20657272 	addi	a1,v1,29298
  40adf4:	6f720000 	0x6f720000
  40adf8:	6964655f 	0x6964655f
  40adfc:	77726974 	jalx	dc9a5d0 <end+0xd88f560>
  40ae00:	6528293a 	0x6528293a
  40ae04:	206f6666 	addi	t7,v1,26214
  40ae08:	7365745f 	0x7365745f
  40ae0c:	62656769 	0x62656769
  40ae10:	6e3a2578 	0x6e3a2578
  40ae14:	206f6666 	addi	t7,v1,26214
  40ae18:	7365743a 	0x7365743a
  40ae1c:	25782073 	addiu	t8,t3,8307
  40ae20:	72633a25 	0x72633a25
  40ae24:	780a0000 	0x780a0000
  40ae28:	54686973 	bnel	v1,t0,4253f8 <end+0x1a388>
  40ae2c:	20697320 	addi	t1,v1,29472
  40ae30:	74686520 	jalx	1a19480 <end+0x160e410>
  40ae34:	4e455720 	c3	0x455720
  40ae38:	6d657373 	0x6d657373
  40ae3c:	61676520 	0x61676520
  40ae40:	6f662074 	0x6f662074
  40ae44:	68652064 	0x68652064
  40ae48:	6179210d 	0x6179210d
  40ae4c:	0a0d0a00 	j	8342800 <end+0x7f37790>
  40ae50:	74657374 	jalx	195cdd0 <end+0x1551d60>
  40ae54:	2e630000 	sltiu	v1,s3,0
  40ae58:	73797363 	0x73797363
  40ae5c:	616c6c5f 	0x616c6c5f
  40ae60:	6d656d5f 	0x6d656d5f
  40ae64:	616c6c6f 	0x616c6c6f
  40ae68:	633a2025 	0x633a2025
  40ae6c:	65000000 	0x65000000
  40ae70:	616c6c6f 	0x616c6c6f
  40ae74:	635f626c 	0x635f626c
  40ae78:	6f636b3a 	0x6f636b3a
  40ae7c:	20256500 	addi	a1,at,25856
  40ae80:	62697473 	0x62697473
  40ae84:	5b722f33 	0x5b722f33
  40ae88:	325d2628 	andi	sp,s2,0x2628
  40ae8c:	313c3c28 	andi	gp,t1,0x3c28
  40ae90:	72253332 	0x72253332
  40ae94:	29290000 	slti	t1,t1,0
  40ae98:	21286269 	addi	t0,t1,25193
  40ae9c:	746d6170 	jalx	1b585c0 <end+0x174d550>
  40aea0:	5b722f33 	0x5b722f33
  40aea4:	325d2628 	andi	sp,s2,0x2628
  40aea8:	313c3c28 	andi	gp,t1,0x3c28
  40aeac:	72253332 	0x72253332
  40aeb0:	29292900 	slti	t1,t1,10496
  40aeb4:	616c6c6f 	0x616c6c6f
  40aeb8:	635f626c 	0x635f626c
  40aebc:	6f636b20 	0x6f636b20
  40aec0:	69732067 	0x69732067
  40aec4:	6f6f640a 	0x6f6f640a
  40aec8:	00000000 	nop
  40aecc:	2f6e6f74 	sltiu	t6,k1,28532
  40aed0:	2d666f75 	sltiu	a2,t3,28533
  40aed4:	6e640000 	0x6e640000
  40aed8:	66696c65 	0x66696c65
  40aedc:	5f6f7065 	0x5f6f7065
  40aee0:	6e202f6e 	0x6e202f6e
  40aee4:	6f742d66 	0x6f742d66
  40aee8:	6f756e64 	0x6f756e64
  40aeec:	3a202565 	xori	zero,s1,0x2565
  40aef0:	00000000 	nop
  40aef4:	66696c65 	0x66696c65
  40aef8:	5f6f7065 	0x5f6f7065
  40aefc:	6e202f6e 	0x6e202f6e
  40af00:	6f742d66 	0x6f742d66
  40af04:	6f756e64 	0x6f756e64
  40af08:	20737563 	addi	s3,v1,30051
  40af0c:	63656564 	0x63656564
  40af10:	65642100 	0x65642100
  40af14:	2f6e6577 	sltiu	t6,k1,25975
  40af18:	6d6f7464 	0x6d6f7464
  40af1c:	00000000 	nop
  40af20:	66696c65 	0x66696c65
  40af24:	5f6f7065 	0x5f6f7065
  40af28:	6e202f6e 	0x6e202f6e
  40af2c:	65776d6f 	0x65776d6f
  40af30:	74643a20 	jalx	190e880 <end+0x1503810>
  40af34:	25650000 	addiu	a1,t3,0
  40af38:	66696c65 	0x66696c65
  40af3c:	5f6f7065 	0x5f6f7065
  40af40:	6e206973 	0x6e206973
  40af44:	20676f6f 	addi	a3,v1,28527
  40af48:	640a0000 	0x640a0000
  40af4c:	66696c65 	0x66696c65
  40af50:	5f676574 	0x5f676574
  40af54:	5f626c6f 	0x5f626c6f
  40af58:	636b3a20 	0x636b3a20
  40af5c:	25650000 	addiu	a1,t3,0
  40af60:	66696c65 	0x66696c65
  40af64:	5f676574 	0x5f676574
  40af68:	5f626c6f 	0x5f626c6f
  40af6c:	636b2072 	0x636b2072
  40af70:	65747572 	0x65747572
  40af74:	6e656420 	0x6e656420
  40af78:	77726f6e 	jalx	dc9bdb8 <end+0xd890d48>
  40af7c:	67206461 	0x67206461
  40af80:	74610000 	jalx	1840000 <end+0x1434f90>
  40af84:	66696c65 	0x66696c65
  40af88:	5f676574 	0x5f676574
  40af8c:	5f626c6f 	0x5f626c6f
  40af90:	636b2069 	0x636b2069
  40af94:	7320676f 	0x7320676f
  40af98:	6f640a00 	0x6f640a00
  40af9c:	66696c65 	0x66696c65
  40afa0:	5f666c75 	0x5f666c75
  40afa4:	73682069 	0x73682069
  40afa8:	7320676f 	0x7320676f
  40afac:	6f640a00 	0x6f640a00
  40afb0:	66696c65 	0x66696c65
  40afb4:	5f736574 	0x5f736574
  40afb8:	5f73697a 	0x5f73697a
  40afbc:	653a2025 	0x653a2025
  40afc0:	65000000 	0x65000000
  40afc4:	662d3e66 	0x662d3e66
  40afc8:	5f646972 	0x5f646972
  40afcc:	6563745b 	0x6563745b
  40afd0:	305d203d 	andi	sp,v0,0x203d
  40afd4:	3d203000 	0x3d203000
  40afd8:	66696c65 	0x66696c65
  40afdc:	5f747275 	0x5f747275
  40afe0:	6e636174 	0x6e636174
  40afe4:	65206973 	0x65206973
  40afe8:	20676f6f 	addi	a3,v1,28527
  40afec:	640a0000 	0x640a0000
  40aff0:	66696c65 	0x66696c65
  40aff4:	5f736574 	0x5f736574
  40aff8:	5f73697a 	0x5f73697a
  40affc:	6520323a 	0x6520323a
  40b000:	20256500 	addi	a1,at,25856
  40b004:	66696c65 	0x66696c65
  40b008:	5f676574 	0x5f676574
  40b00c:	5f626c6f 	0x5f626c6f
  40b010:	636b2032 	0x636b2032
  40b014:	3a202565 	xori	zero,s1,0x2565
  40b018:	00000000 	nop
  40b01c:	66696c65 	0x66696c65
  40b020:	20726577 	addi	s2,v1,25975
  40b024:	72697465 	0x72697465
  40b028:	20697320 	addi	t1,v1,29472
  40b02c:	676f6f64 	0x676f6f64
  40b030:	Address 0x000000000040b030 is out of bounds.

Disassembly of section .data.rel:

0040b034 <devtab>:
  40b034:	0040b03c 	0x40b03c
  40b038:	00000000 	nop
Disassembly of section .data.rel.local:

0040b03c <devfile>:
  40b03c:	00000066 	0x66
  40b040:	0040a8e0 	0x40a8e0
  40b044:	00402534 	teq	v0,zero,0x94
  40b048:	004026d0 	0x4026d0
  40b04c:	00402444 	0x402444
  40b050:	0040277c 	0x40277c
  40b054:	00000000 	nop

0040b058 <msg>:
  40b058:	0040ae28 	0x40ae28
Disassembly of section .bss:

0040b060 <env>:
  40b060:	00000000 	nop

0040b064 <bitmap>:
  40b064:	00000000 	nop

0040b068 <super>:
  40b068:	00000000 	nop

0040b06c <nbitmap>:
  40b06c:	00000000 	nop
Disassembly of section .pdr:

00000000 <.pdr>:
   0:	004000c0 	0x4000c0
	...
  18:	0000001d 	0x1d
  1c:	0000001f 	0x1f
  20:	004000e0 	0x4000e0
	...
  38:	0000001d 	0x1d
  3c:	0000001f 	0x1f
  40:	00400114 	0x400114
  44:	803f0000 	lb	ra,0(at)
  48:	fffffff8 	sdc3	$31,-8(ra)
	...
  54:	00000030 	tge	zero,zero
  58:	0000001d 	0x1d
  5c:	0000001f 	0x1f
  60:	004001f8 	0x4001f8
  64:	80070000 	lb	a3,0(zero)
  68:	fffffffc 	sdc3	$31,-4(ra)
	...
  74:	00000020 	add	zero,zero,zero
  78:	0000001d 	0x1d
  7c:	0000001f 	0x1f
  80:	0040026c 	0x40026c
  84:	80030000 	lb	v1,0(zero)
  88:	fffffff8 	sdc3	$31,-8(ra)
	...
  94:	00000428 	0x428
  98:	0000001d 	0x1d
  9c:	0000001f 	0x1f
  a0:	00400378 	0x400378
  a4:	80030000 	lb	v1,0(zero)
  a8:	fffffff8 	sdc3	$31,-8(ra)
	...
  b4:	00000028 	0x28
  b8:	0000001d 	0x1d
  bc:	0000001f 	0x1f
  c0:	00400418 	0x400418
  c4:	80030000 	lb	v1,0(zero)
  c8:	fffffff8 	sdc3	$31,-8(ra)
	...
  d4:	00000028 	0x28
  d8:	0000001d 	0x1d
  dc:	0000001f 	0x1f
  e0:	004004b0 	tge	v0,zero,0x12
  e4:	80010000 	lb	at,0(zero)
  e8:	fffffffc 	sdc3	$31,-4(ra)
	...
  f4:	00000020 	add	zero,zero,zero
  f8:	0000001d 	0x1d
  fc:	0000001f 	0x1f
 100:	0040051c 	0x40051c
 104:	80010000 	lb	at,0(zero)
 108:	fffffffc 	sdc3	$31,-4(ra)
	...
 114:	00000418 	0x418
 118:	0000001d 	0x1d
 11c:	0000001f 	0x1f
 120:	00400588 	0x400588
 124:	80030000 	lb	v1,0(zero)
 128:	fffffff8 	sdc3	$31,-8(ra)
	...
 134:	00000028 	0x28
 138:	0000001d 	0x1d
 13c:	0000001f 	0x1f
 140:	00400620 	0x400620
 144:	80010000 	lb	at,0(zero)
 148:	fffffffc 	sdc3	$31,-4(ra)
	...
 154:	00000018 	mult	zero,zero
 158:	0000001d 	0x1d
 15c:	0000001f 	0x1f
 160:	00400658 	0x400658
 164:	80000000 	lb	zero,0(zero)
 168:	fffffff8 	sdc3	$31,-8(ra)
	...
 174:	00000020 	add	zero,zero,zero
 178:	0000001d 	0x1d
 17c:	0000001f 	0x1f
 180:	00400790 	0x400790
 184:	80000000 	lb	zero,0(zero)
 188:	fffffff8 	sdc3	$31,-8(ra)
	...
 194:	00000018 	mult	zero,zero
 198:	0000001d 	0x1d
 19c:	0000001f 	0x1f
 1a0:	004007e0 	0x4007e0
 1a4:	80070000 	lb	a3,0(zero)
 1a8:	fffffffc 	sdc3	$31,-4(ra)
	...
 1b4:	00000020 	add	zero,zero,zero
 1b8:	0000001d 	0x1d
 1bc:	0000001f 	0x1f
 1c0:	00400874 	teq	v0,zero,0x21
 1c4:	80000000 	lb	zero,0(zero)
 1c8:	fffffff8 	sdc3	$31,-8(ra)
	...
 1d4:	00000020 	add	zero,zero,zero
 1d8:	0000001d 	0x1d
 1dc:	0000001f 	0x1f
 1e0:	004008b0 	tge	v0,zero,0x22
 1e4:	80010000 	lb	at,0(zero)
 1e8:	fffffffc 	sdc3	$31,-4(ra)
	...
 1f4:	00000020 	add	zero,zero,zero
 1f8:	0000001d 	0x1d
 1fc:	0000001f 	0x1f
 200:	00400920 	0x400920
 204:	801f0000 	lb	ra,0(zero)
 208:	fffffffc 	sdc3	$31,-4(ra)
	...
 214:	00000088 	0x88
 218:	0000001d 	0x1d
 21c:	0000001f 	0x1f
 220:	00400e8c 	syscall	0x1003a
	...
 238:	0000001d 	0x1d
 23c:	0000001f 	0x1f
 240:	00400f0c 	syscall	0x1003c
	...
 258:	0000001d 	0x1d
 25c:	0000001f 	0x1f
 260:	00401014 	0x401014
	...
 278:	0000001d 	0x1d
 27c:	0000001f 	0x1f
 280:	004011a0 	0x4011a0
 284:	80000000 	lb	zero,0(zero)
 288:	fffffff8 	sdc3	$31,-8(ra)
	...
 294:	00000018 	mult	zero,zero
 298:	0000001d 	0x1d
 29c:	0000001f 	0x1f
 2a0:	004011bc 	0x4011bc
 2a4:	80000000 	lb	zero,0(zero)
 2a8:	fffffff8 	sdc3	$31,-8(ra)
	...
 2b4:	00000018 	mult	zero,zero
 2b8:	0000001d 	0x1d
 2bc:	0000001f 	0x1f
 2c0:	004011f0 	tge	v0,zero,0x47
	...
 2d8:	0000001d 	0x1d
 2dc:	0000001f 	0x1f
 2e0:	0040124c 	syscall	0x10049
	...
 2f8:	0000001d 	0x1d
 2fc:	0000001f 	0x1f
 300:	00401278 	0x401278
 304:	80010000 	lb	at,0(zero)
 308:	fffffffc 	sdc3	$31,-4(ra)
	...
 314:	00000020 	add	zero,zero,zero
 318:	0000001d 	0x1d
 31c:	0000001f 	0x1f
 320:	00401334 	teq	v0,zero,0x4c
 324:	80030000 	lb	v1,0(zero)
 328:	fffffff8 	sdc3	$31,-8(ra)
	...
 334:	00000028 	0x28
 338:	0000001d 	0x1d
 33c:	0000001f 	0x1f
 340:	004013d4 	0x4013d4
 344:	803f0000 	lb	ra,0(at)
 348:	fffffff8 	sdc3	$31,-8(ra)
	...
 354:	00000030 	tge	zero,zero
 358:	0000001d 	0x1d
 35c:	0000001f 	0x1f
 360:	00401564 	0x401564
 364:	80000000 	lb	zero,0(zero)
 368:	fffffff8 	sdc3	$31,-8(ra)
	...
 374:	00000018 	mult	zero,zero
 378:	0000001d 	0x1d
 37c:	0000001f 	0x1f
 380:	00401590 	0x401590
 384:	80010000 	lb	at,0(zero)
 388:	fffffffc 	sdc3	$31,-4(ra)
	...
 394:	00000018 	mult	zero,zero
 398:	0000001d 	0x1d
 39c:	0000001f 	0x1f
 3a0:	00401610 	0x401610
 3a4:	80000000 	lb	zero,0(zero)
 3a8:	fffffff8 	sdc3	$31,-8(ra)
	...
 3b4:	00000020 	add	zero,zero,zero
 3b8:	0000001d 	0x1d
 3bc:	0000001f 	0x1f
 3c0:	00401644 	0x401644
 3c4:	80000000 	lb	zero,0(zero)
 3c8:	fffffff8 	sdc3	$31,-8(ra)
	...
 3d4:	00000020 	add	zero,zero,zero
 3d8:	0000001d 	0x1d
 3dc:	0000001f 	0x1f
 3e0:	00401674 	teq	v0,zero,0x59
 3e4:	80000000 	lb	zero,0(zero)
 3e8:	fffffff8 	sdc3	$31,-8(ra)
	...
 3f4:	00000020 	add	zero,zero,zero
 3f8:	0000001d 	0x1d
 3fc:	0000001f 	0x1f
 400:	004016a4 	0x4016a4
 404:	80000000 	lb	zero,0(zero)
 408:	fffffff8 	sdc3	$31,-8(ra)
	...
 414:	00000020 	add	zero,zero,zero
 418:	0000001d 	0x1d
 41c:	0000001f 	0x1f
 420:	004016d4 	0x4016d4
 424:	80000000 	lb	zero,0(zero)
 428:	fffffff8 	sdc3	$31,-8(ra)
	...
 434:	00000020 	add	zero,zero,zero
 438:	0000001d 	0x1d
 43c:	0000001f 	0x1f
 440:	0040170c 	syscall	0x1005c
 444:	80000000 	lb	zero,0(zero)
 448:	fffffff8 	sdc3	$31,-8(ra)
	...
 454:	00000020 	add	zero,zero,zero
 458:	0000001d 	0x1d
 45c:	0000001f 	0x1f
 460:	00401744 	0x401744
 464:	80000000 	lb	zero,0(zero)
 468:	fffffff8 	sdc3	$31,-8(ra)
	...
 474:	00000020 	add	zero,zero,zero
 478:	0000001d 	0x1d
 47c:	0000001f 	0x1f
 480:	00401784 	0x401784
 484:	80000000 	lb	zero,0(zero)
 488:	fffffff8 	sdc3	$31,-8(ra)
	...
 494:	00000020 	add	zero,zero,zero
 498:	0000001d 	0x1d
 49c:	0000001f 	0x1f
 4a0:	004017b8 	0x4017b8
 4a4:	80010000 	lb	at,0(zero)
 4a8:	fffffffc 	sdc3	$31,-4(ra)
	...
 4b4:	00000020 	add	zero,zero,zero
 4b8:	0000001d 	0x1d
 4bc:	0000001f 	0x1f
 4c0:	00401808 	0x401808
 4c4:	80000000 	lb	zero,0(zero)
 4c8:	fffffff8 	sdc3	$31,-8(ra)
	...
 4d4:	00000020 	add	zero,zero,zero
 4d8:	0000001d 	0x1d
 4dc:	0000001f 	0x1f
 4e0:	0040183c 	0x40183c
 4e4:	80000000 	lb	zero,0(zero)
 4e8:	fffffff8 	sdc3	$31,-8(ra)
	...
 4f4:	00000020 	add	zero,zero,zero
 4f8:	0000001d 	0x1d
 4fc:	0000001f 	0x1f
 500:	00401870 	tge	v0,zero,0x61
 504:	80000000 	lb	zero,0(zero)
 508:	fffffff8 	sdc3	$31,-8(ra)
	...
 514:	00000020 	add	zero,zero,zero
 518:	0000001d 	0x1d
 51c:	0000001f 	0x1f
 520:	004018a0 	0x4018a0
 524:	80000000 	lb	zero,0(zero)
 528:	fffffff8 	sdc3	$31,-8(ra)
	...
 534:	00000020 	add	zero,zero,zero
 538:	0000001d 	0x1d
 53c:	0000001f 	0x1f
 540:	004018dc 	0x4018dc
 544:	80000000 	lb	zero,0(zero)
 548:	fffffff8 	sdc3	$31,-8(ra)
	...
 554:	00000020 	add	zero,zero,zero
 558:	0000001d 	0x1d
 55c:	0000001f 	0x1f
 560:	00401910 	0x401910
 564:	801f0000 	lb	ra,0(zero)
 568:	fffffffc 	sdc3	$31,-4(ra)
	...
 574:	00000028 	0x28
 578:	0000001d 	0x1d
 57c:	0000001f 	0x1f
 580:	004019a8 	0x4019a8
 584:	80030000 	lb	v1,0(zero)
 588:	fffffff8 	sdc3	$31,-8(ra)
	...
 594:	00000020 	add	zero,zero,zero
 598:	0000001d 	0x1d
 59c:	0000001f 	0x1f
 5a0:	00401a10 	0x401a10
	...
 5b8:	0000001d 	0x1d
 5bc:	0000001f 	0x1f
 5c0:	00401a34 	teq	v0,zero,0x68
	...
 5d8:	0000001d 	0x1d
 5dc:	0000001f 	0x1f
 5e0:	00401a54 	0x401a54
	...
 5f8:	0000001d 	0x1d
 5fc:	0000001f 	0x1f
 600:	00401aa0 	0x401aa0
	...
 618:	0000001d 	0x1d
 61c:	0000001f 	0x1f
 620:	00401ad0 	0x401ad0
	...
 638:	0000001d 	0x1d
 63c:	0000001f 	0x1f
 640:	00401b40 	0x401b40
 644:	80000000 	lb	zero,0(zero)
 648:	fffffff8 	sdc3	$31,-8(ra)
	...
 654:	00000018 	mult	zero,zero
 658:	0000001d 	0x1d
 65c:	0000001f 	0x1f
 660:	00401bcc 	syscall	0x1006f
	...
 678:	0000001d 	0x1d
 67c:	0000001f 	0x1f
 680:	00401c40 	0x401c40
 684:	80000000 	lb	zero,0(zero)
 688:	fffffff8 	sdc3	$31,-8(ra)
	...
 694:	00000018 	mult	zero,zero
 698:	0000001d 	0x1d
 69c:	0000001f 	0x1f
 6a0:	00401c60 	0x401c60
	...
 6b8:	0000001d 	0x1d
 6bc:	0000001f 	0x1f
 6c0:	00401ca8 	0x401ca8
 6c4:	80000000 	lb	zero,0(zero)
 6c8:	fffffff8 	sdc3	$31,-8(ra)
	...
 6d4:	00000018 	mult	zero,zero
 6d8:	0000001d 	0x1d
 6dc:	0000001f 	0x1f
 6e0:	00401cd0 	0x401cd0
	...
 6f8:	0000001d 	0x1d
 6fc:	0000001f 	0x1f
 700:	00401ce0 	0x401ce0
 704:	80010000 	lb	at,0(zero)
 708:	fffffffc 	sdc3	$31,-4(ra)
	...
 714:	00000020 	add	zero,zero,zero
 718:	0000001d 	0x1d
 71c:	0000001f 	0x1f
 720:	00401d44 	0x401d44
 724:	80030000 	lb	v1,0(zero)
 728:	fffffff8 	sdc3	$31,-8(ra)
	...
 734:	00000020 	add	zero,zero,zero
 738:	0000001d 	0x1d
 73c:	0000001f 	0x1f
 740:	00401d80 	0x401d80
 744:	80ff0000 	lb	ra,0(a3)
 748:	fffffff8 	sdc3	$31,-8(ra)
	...
 754:	00000048 	0x48
 758:	0000001d 	0x1d
 75c:	0000001f 	0x1f
 760:	00401ef0 	tge	v0,zero,0x7b
 764:	80070000 	lb	a3,0(zero)
 768:	fffffffc 	sdc3	$31,-4(ra)
	...
 774:	00000028 	0x28
 778:	0000001d 	0x1d
 77c:	0000001f 	0x1f
 780:	00401fc0 	0x401fc0
 784:	800f0000 	lb	t7,0(zero)
 788:	fffffff8 	sdc3	$31,-8(ra)
	...
 794:	00000028 	0x28
 798:	0000001d 	0x1d
 79c:	0000001f 	0x1f
 7a0:	00402048 	0x402048
 7a4:	80070000 	lb	a3,0(zero)
 7a8:	fffffffc 	sdc3	$31,-4(ra)
	...
 7b4:	00000028 	0x28
 7b8:	0000001d 	0x1d
 7bc:	0000001f 	0x1f
 7c0:	00402114 	0x402114
 7c4:	80010000 	lb	at,0(zero)
 7c8:	fffffffc 	sdc3	$31,-4(ra)
	...
 7d4:	00000020 	add	zero,zero,zero
 7d8:	0000001d 	0x1d
 7dc:	0000001f 	0x1f
 7e0:	00402150 	0x402150
 7e4:	80010000 	lb	at,0(zero)
 7e8:	fffffffc 	sdc3	$31,-4(ra)
	...
 7f4:	00000020 	add	zero,zero,zero
 7f8:	0000001d 	0x1d
 7fc:	0000001f 	0x1f
 800:	004021bc 	0x4021bc
 804:	80030000 	lb	v1,0(zero)
 808:	fffffff8 	sdc3	$31,-8(ra)
	...
 814:	00000020 	add	zero,zero,zero
 818:	0000001d 	0x1d
 81c:	0000001f 	0x1f
 820:	00402220 	0x402220
	...
 838:	0000001d 	0x1d
 83c:	0000001f 	0x1f
 840:	00402290 	0x402290
 844:	c0ff0000 	ll	ra,0(a3)
 848:	fffffffc 	sdc3	$31,-4(ra)
	...
 854:	00000048 	0x48
 858:	0000001d 	0x1d
 85c:	0000001f 	0x1f
 860:	00402444 	0x402444
 864:	801f0000 	lb	ra,0(zero)
 868:	fffffffc 	sdc3	$31,-4(ra)
	...
 874:	00000028 	0x28
 878:	0000001d 	0x1d
 87c:	0000001f 	0x1f
 880:	00402534 	teq	v0,zero,0x94
 884:	80070000 	lb	a3,0(zero)
 888:	fffffffc 	sdc3	$31,-4(ra)
	...
 894:	00000020 	add	zero,zero,zero
 898:	0000001d 	0x1d
 89c:	0000001f 	0x1f
 8a0:	004025a8 	0x4025a8
 8a4:	807f0000 	lb	ra,0(v1)
 8a8:	fffffffc 	sdc3	$31,-4(ra)
	...
 8b4:	00000040 	ssnop
 8b8:	0000001d 	0x1d
 8bc:	0000001f 	0x1f
 8c0:	004026d0 	0x4026d0
 8c4:	801f0000 	lb	ra,0(zero)
 8c8:	fffffffc 	sdc3	$31,-4(ra)
	...
 8d4:	00000028 	0x28
 8d8:	0000001d 	0x1d
 8dc:	0000001f 	0x1f
 8e0:	0040277c 	0x40277c
 8e4:	80030000 	lb	v1,0(zero)
 8e8:	fffffff8 	sdc3	$31,-8(ra)
	...
 8f4:	00000020 	add	zero,zero,zero
 8f8:	0000001d 	0x1d
 8fc:	0000001f 	0x1f
 900:	004027d0 	0x4027d0
 904:	c0ff0000 	ll	ra,0(a3)
 908:	fffffffc 	sdc3	$31,-4(ra)
	...
 914:	00000048 	0x48
 918:	0000001d 	0x1d
 91c:	0000001f 	0x1f
 920:	00402960 	0x402960
 924:	80000000 	lb	zero,0(zero)
 928:	fffffff8 	sdc3	$31,-8(ra)
	...
 934:	00000018 	mult	zero,zero
 938:	0000001d 	0x1d
 93c:	0000001f 	0x1f
 940:	0040297c 	0x40297c
 944:	80000000 	lb	zero,0(zero)
 948:	fffffff8 	sdc3	$31,-8(ra)
	...
 954:	00000018 	mult	zero,zero
 958:	0000001d 	0x1d
 95c:	0000001f 	0x1f
 960:	004029a0 	0x4029a0
 964:	80030000 	lb	v1,0(zero)
 968:	fffffff8 	sdc3	$31,-8(ra)
	...
 974:	00000028 	0x28
 978:	0000001d 	0x1d
 97c:	0000001f 	0x1f
 980:	00402a00 	0x402a00
 984:	800f0000 	lb	t7,0(zero)
 988:	fffffff8 	sdc3	$31,-8(ra)
	...
 994:	00000030 	tge	zero,zero
 998:	0000001d 	0x1d
 99c:	0000001f 	0x1f
 9a0:	00402a7c 	0x402a7c
 9a4:	80000000 	lb	zero,0(zero)
 9a8:	fffffff8 	sdc3	$31,-8(ra)
	...
 9b4:	00000020 	add	zero,zero,zero
 9b8:	0000001d 	0x1d
 9bc:	0000001f 	0x1f
 9c0:	00402ab8 	0x402ab8
 9c4:	80000000 	lb	zero,0(zero)
 9c8:	fffffff8 	sdc3	$31,-8(ra)
	...
 9d4:	00000018 	mult	zero,zero
 9d8:	0000001d 	0x1d
 9dc:	0000001f 	0x1f
 9e0:	00402af0 	tge	v0,zero,0xab
 9e4:	80000000 	lb	zero,0(zero)
 9e8:	fffffff8 	sdc3	$31,-8(ra)
	...
 9f4:	00000018 	mult	zero,zero
 9f8:	0000001d 	0x1d
 9fc:	0000001f 	0x1f
 a00:	00402b20 	0x402b20
 a04:	80000000 	lb	zero,0(zero)
 a08:	fffffff8 	sdc3	$31,-8(ra)
	...
 a14:	00000018 	mult	zero,zero
 a18:	0000001d 	0x1d
 a1c:	0000001f 	0x1f
 a20:	00402b58 	0x402b58
 a24:	80030000 	lb	v1,0(zero)
 a28:	fffffff8 	sdc3	$31,-8(ra)
	...
 a34:	00000020 	add	zero,zero,zero
 a38:	0000001d 	0x1d
 a3c:	0000001f 	0x1f
 a40:	00402bb8 	0x402bb8
 a44:	80000000 	lb	zero,0(zero)
 a48:	fffffff8 	sdc3	$31,-8(ra)
	...
 a54:	00000018 	mult	zero,zero
 a58:	0000001d 	0x1d
 a5c:	0000001f 	0x1f
 a60:	00402bf0 	tge	v0,zero,0xaf
 a64:	80000000 	lb	zero,0(zero)
 a68:	fffffff8 	sdc3	$31,-8(ra)
	...
 a74:	00000018 	mult	zero,zero
 a78:	0000001d 	0x1d
 a7c:	0000001f 	0x1f
 a80:	00402c48 	0x402c48
	...
 a98:	0000001d 	0x1d
 a9c:	0000001f 	0x1f
 aa0:	00402c9c 	0x402c9c
 aa4:	80010000 	lb	at,0(zero)
 aa8:	fffffffc 	sdc3	$31,-4(ra)
	...
 ab4:	00000018 	mult	zero,zero
 ab8:	0000001d 	0x1d
 abc:	0000001f 	0x1f
 ac0:	00402cd0 	0x402cd0
	...
 ad8:	0000001d 	0x1d
 adc:	0000001f 	0x1f
 ae0:	00402cd8 	0x402cd8
 ae4:	80010000 	lb	at,0(zero)
 ae8:	fffffffc 	sdc3	$31,-4(ra)
	...
 af4:	00000018 	mult	zero,zero
 af8:	0000001d 	0x1d
 afc:	0000001f 	0x1f
 b00:	00402d20 	0x402d20
 b04:	80010000 	lb	at,0(zero)
 b08:	fffffffc 	sdc3	$31,-4(ra)
	...
 b14:	00000018 	mult	zero,zero
 b18:	0000001d 	0x1d
 b1c:	0000001f 	0x1f
 b20:	00402d64 	0x402d64
 b24:	800f0000 	lb	t7,0(zero)
 b28:	fffffff8 	sdc3	$31,-8(ra)
	...
 b34:	00000028 	0x28
 b38:	0000001d 	0x1d
 b3c:	0000001f 	0x1f
 b40:	00402e9c 	0x402e9c
 b44:	80030000 	lb	v1,0(zero)
 b48:	fffffff8 	sdc3	$31,-8(ra)
	...
 b54:	00000028 	0x28
 b58:	0000001d 	0x1d
 b5c:	0000001f 	0x1f
 b60:	00402f38 	0x402f38
 b64:	80010000 	lb	at,0(zero)
 b68:	fffffffc 	sdc3	$31,-4(ra)
	...
 b74:	00000018 	mult	zero,zero
 b78:	0000001d 	0x1d
 b7c:	0000001f 	0x1f
 b80:	00403000 	0x403000
	...
 b98:	0000001d 	0x1d
 b9c:	0000001f 	0x1f
 ba0:	00403058 	0x403058
 ba4:	80000000 	lb	zero,0(zero)
 ba8:	fffffff8 	sdc3	$31,-8(ra)
	...
 bb4:	00000018 	mult	zero,zero
 bb8:	0000001d 	0x1d
 bbc:	0000001f 	0x1f
 bc0:	004030b4 	teq	v0,zero,0xc2
 bc4:	80010000 	lb	at,0(zero)
 bc8:	fffffffc 	sdc3	$31,-4(ra)
	...
 bd4:	00000018 	mult	zero,zero
 bd8:	0000001d 	0x1d
 bdc:	0000001f 	0x1f
 be0:	00403180 	0x403180
 be4:	80030000 	lb	v1,0(zero)
 be8:	fffffff8 	sdc3	$31,-8(ra)
	...
 bf4:	00000020 	add	zero,zero,zero
 bf8:	0000001d 	0x1d
 bfc:	0000001f 	0x1f
 c00:	004031d0 	0x4031d0
 c04:	80000000 	lb	zero,0(zero)
 c08:	fffffff8 	sdc3	$31,-8(ra)
	...
 c14:	00000028 	0x28
 c18:	0000001d 	0x1d
 c1c:	0000001f 	0x1f
 c20:	00403298 	0x403298
 c24:	80030000 	lb	v1,0(zero)
 c28:	fffffff8 	sdc3	$31,-8(ra)
	...
 c34:	00000020 	add	zero,zero,zero
 c38:	0000001d 	0x1d
 c3c:	0000001f 	0x1f
 c40:	00403400 	0x403400
 c44:	80010000 	lb	at,0(zero)
 c48:	fffffffc 	sdc3	$31,-4(ra)
	...
 c54:	00000018 	mult	zero,zero
 c58:	0000001d 	0x1d
 c5c:	0000001f 	0x1f
 c60:	00403578 	0x403578
 c64:	80000000 	lb	zero,0(zero)
 c68:	fffffff8 	sdc3	$31,-8(ra)
	...
 c74:	00000018 	mult	zero,zero
 c78:	0000001d 	0x1d
 c7c:	0000001f 	0x1f
 c80:	004035a4 	0x4035a4
 c84:	80070000 	lb	a3,0(zero)
 c88:	fffffffc 	sdc3	$31,-4(ra)
	...
 c94:	00000028 	0x28
 c98:	0000001d 	0x1d
 c9c:	0000001f 	0x1f
 ca0:	00403674 	teq	v0,zero,0xd9
 ca4:	80030000 	lb	v1,0(zero)
 ca8:	fffffff8 	sdc3	$31,-8(ra)
	...
 cb4:	00000028 	0x28
 cb8:	0000001d 	0x1d
 cbc:	0000001f 	0x1f
 cc0:	004036f4 	teq	v0,zero,0xdb
 cc4:	80000000 	lb	zero,0(zero)
 cc8:	fffffff8 	sdc3	$31,-8(ra)
	...
 cd4:	00000020 	add	zero,zero,zero
 cd8:	0000001d 	0x1d
 cdc:	0000001f 	0x1f
 ce0:	00403740 	0x403740
 ce4:	80010000 	lb	at,0(zero)
 ce8:	fffffffc 	sdc3	$31,-4(ra)
	...
 cf4:	00000020 	add	zero,zero,zero
 cf8:	0000001d 	0x1d
 cfc:	0000001f 	0x1f
 d00:	00403794 	0x403794
 d04:	80000000 	lb	zero,0(zero)
 d08:	fffffff8 	sdc3	$31,-8(ra)
	...
 d14:	00000020 	add	zero,zero,zero
 d18:	0000001d 	0x1d
 d1c:	0000001f 	0x1f
 d20:	004037d0 	0x4037d0
 d24:	80ff0000 	lb	ra,0(a3)
 d28:	fffffff8 	sdc3	$31,-8(ra)
	...
 d34:	00000040 	ssnop
 d38:	0000001d 	0x1d
 d3c:	0000001f 	0x1f
 d40:	00403898 	0x403898
 d44:	800f0000 	lb	t7,0(zero)
 d48:	fffffff8 	sdc3	$31,-8(ra)
	...
 d54:	00000030 	tge	zero,zero
 d58:	0000001d 	0x1d
 d5c:	0000001f 	0x1f
 d60:	00403968 	0x403968
	...
 d78:	0000001d 	0x1d
 d7c:	0000001f 	0x1f
 d80:	00403990 	0x403990
 d84:	80070000 	lb	a3,0(zero)
 d88:	fffffffc 	sdc3	$31,-4(ra)
	...
 d94:	000000a8 	0xa8
 d98:	0000001d 	0x1d
 d9c:	0000001f 	0x1f
 da0:	00403a98 	0x403a98
 da4:	80010000 	lb	at,0(zero)
 da8:	fffffffc 	sdc3	$31,-4(ra)
	...
 db4:	000000a0 	0xa0
 db8:	0000001d 	0x1d
 dbc:	0000001f 	0x1f
 dc0:	00403adc 	0x403adc
 dc4:	80010000 	lb	at,0(zero)
 dc8:	fffffffc 	sdc3	$31,-4(ra)
	...
 dd4:	000000a0 	0xa0
 dd8:	0000001d 	0x1d
 ddc:	0000001f 	0x1f
 de0:	00403b64 	0x403b64
 de4:	800f0000 	lb	t7,0(zero)
 de8:	fffffff8 	sdc3	$31,-8(ra)
	...
 df4:	00000028 	0x28
 df8:	0000001d 	0x1d
 dfc:	0000001f 	0x1f
 e00:	00403c2c 	0x403c2c
 e04:	80030000 	lb	v1,0(zero)
 e08:	fffffff8 	sdc3	$31,-8(ra)
	...
 e14:	00000020 	add	zero,zero,zero
 e18:	0000001d 	0x1d
 e1c:	0000001f 	0x1f
 e20:	00403c88 	0x403c88
 e24:	80070000 	lb	a3,0(zero)
 e28:	fffffffc 	sdc3	$31,-4(ra)
	...
 e34:	00000028 	0x28
 e38:	0000001d 	0x1d
 e3c:	0000001f 	0x1f
 e40:	00403d0c 	syscall	0x100f4
 e44:	80070000 	lb	a3,0(zero)
 e48:	fffffffc 	sdc3	$31,-4(ra)
	...
 e54:	00000020 	add	zero,zero,zero
 e58:	0000001d 	0x1d
 e5c:	0000001f 	0x1f
 e60:	00403d88 	0x403d88
 e64:	80010000 	lb	at,0(zero)
 e68:	fffffffc 	sdc3	$31,-4(ra)
	...
 e74:	00000018 	mult	zero,zero
 e78:	0000001d 	0x1d
 e7c:	0000001f 	0x1f
 e80:	00403dc0 	0x403dc0
 e84:	80000000 	lb	zero,0(zero)
 e88:	fffffff8 	sdc3	$31,-8(ra)
	...
 e94:	00000020 	add	zero,zero,zero
 e98:	0000001d 	0x1d
 e9c:	0000001f 	0x1f
 ea0:	00403e20 	0x403e20
 ea4:	807f0000 	lb	ra,0(v1)
 ea8:	fffffffc 	sdc3	$31,-4(ra)
	...
 eb4:	00000030 	tge	zero,zero
 eb8:	0000001d 	0x1d
 ebc:	0000001f 	0x1f
 ec0:	00403ef0 	tge	v0,zero,0xfb
 ec4:	80ff0000 	lb	ra,0(a3)
 ec8:	fffffff8 	sdc3	$31,-8(ra)
	...
 ed4:	00000038 	0x38
 ed8:	0000001d 	0x1d
 edc:	0000001f 	0x1f
 ee0:	00403fe0 	0x403fe0
	...
 ef8:	0000001d 	0x1d
 efc:	0000001f 	0x1f
 f00:	00404014 	0x404014
	...
 f18:	0000001d 	0x1d
 f1c:	0000001f 	0x1f
 f20:	00404050 	0x404050
	...
 f38:	0000001d 	0x1d
 f3c:	0000001f 	0x1f
 f40:	00404084 	0x404084
 f44:	80010000 	lb	at,0(zero)
 f48:	fffffffc 	sdc3	$31,-4(ra)
	...
 f54:	00000020 	add	zero,zero,zero
 f58:	0000001d 	0x1d
 f5c:	0000001f 	0x1f
